ARM GAS  C:\Users\Teodor\AppData\Local\Temp\ccJrDpuO.s 			page 1


   1              		.cpu cortex-m3
   2              		.arch armv7-m
   3              		.fpu softvfp
   4              		.eabi_attribute 20, 1
   5              		.eabi_attribute 21, 1
   6              		.eabi_attribute 23, 3
   7              		.eabi_attribute 24, 1
   8              		.eabi_attribute 25, 1
   9              		.eabi_attribute 26, 1
  10              		.eabi_attribute 30, 1
  11              		.eabi_attribute 34, 1
  12              		.eabi_attribute 18, 4
  13              		.file	"RCC_Config.c"
  14              		.text
  15              	.Ltext0:
  16              		.cfi_sections	.debug_frame
  17              		.section	.text.PLL_Config64MHZ,"ax",%progbits
  18              		.align	1
  19              		.global	PLL_Config64MHZ
  20              		.syntax unified
  21              		.thumb
  22              		.thumb_func
  24              	PLL_Config64MHZ:
  25              	.LFB65:
  26              		.file 1 "Drivers/System/RCC_Config.c"
   1:Drivers/System/RCC_Config.c **** 
   2:Drivers/System/RCC_Config.c **** #include "RCC_Config.h"
   3:Drivers/System/RCC_Config.c **** 
   4:Drivers/System/RCC_Config.c **** 
   5:Drivers/System/RCC_Config.c **** 
   6:Drivers/System/RCC_Config.c **** void PLL_Config64MHZ(void)
   7:Drivers/System/RCC_Config.c **** {
  27              		.loc 1 7 1 view -0
  28              		.cfi_startproc
  29              		@ args = 0, pretend = 0, frame = 0
  30              		@ frame_needed = 0, uses_anonymous_args = 0
  31              		@ link register save eliminated.
   8:Drivers/System/RCC_Config.c ****   /*If in startup initialize PLL, PLL have be frist deinit
   9:Drivers/System/RCC_Config.c **** 	I commennted initialization in Startup File so here also;
  10:Drivers/System/RCC_Config.c **** 	Below, reset to default */
  11:Drivers/System/RCC_Config.c **** 	 RCC->CR |= (uint32_t)0x00000001;
  32              		.loc 1 11 3 view .LVU1
  33              		.loc 1 11 11 is_stmt 0 view .LVU2
  34 0000 1E4B     		ldr	r3, .L5
  35 0002 1A68     		ldr	r2, [r3]
  36 0004 42F00102 		orr	r2, r2, #1
  37 0008 1A60     		str	r2, [r3]
  12:Drivers/System/RCC_Config.c **** 			RCC->CFGR &= (uint32_t)0xF8FF0000;
  38              		.loc 1 12 4 is_stmt 1 view .LVU3
  39              		.loc 1 12 14 is_stmt 0 view .LVU4
  40 000a 5968     		ldr	r1, [r3, #4]
  41 000c 1C4A     		ldr	r2, .L5+4
  42 000e 0A40     		ands	r2, r2, r1
  43 0010 5A60     		str	r2, [r3, #4]
  13:Drivers/System/RCC_Config.c **** 			RCC->CR &= (uint32_t)0xFEF6FFFF;
  44              		.loc 1 13 4 is_stmt 1 view .LVU5
  45              		.loc 1 13 12 is_stmt 0 view .LVU6
ARM GAS  C:\Users\Teodor\AppData\Local\Temp\ccJrDpuO.s 			page 2


  46 0012 1A68     		ldr	r2, [r3]
  47 0014 22F08472 		bic	r2, r2, #17301504
  48 0018 22F48032 		bic	r2, r2, #65536
  49 001c 1A60     		str	r2, [r3]
  14:Drivers/System/RCC_Config.c **** 			RCC->CR &= (uint32_t)0xFFFBFFFF;
  50              		.loc 1 14 4 is_stmt 1 view .LVU7
  51              		.loc 1 14 12 is_stmt 0 view .LVU8
  52 001e 1A68     		ldr	r2, [r3]
  53 0020 22F48022 		bic	r2, r2, #262144
  54 0024 1A60     		str	r2, [r3]
  15:Drivers/System/RCC_Config.c **** 			RCC->CFGR &= (uint32_t)0xFF80FFFF;
  55              		.loc 1 15 4 is_stmt 1 view .LVU9
  56              		.loc 1 15 14 is_stmt 0 view .LVU10
  57 0026 5A68     		ldr	r2, [r3, #4]
  58 0028 22F4FE02 		bic	r2, r2, #8323072
  59 002c 5A60     		str	r2, [r3, #4]
  16:Drivers/System/RCC_Config.c **** 			RCC->CIR = 0x009F0000;
  60              		.loc 1 16 4 is_stmt 1 view .LVU11
  61              		.loc 1 16 13 is_stmt 0 view .LVU12
  62 002e 4FF41F02 		mov	r2, #10420224
  63 0032 9A60     		str	r2, [r3, #8]
  17:Drivers/System/RCC_Config.c **** 
  18:Drivers/System/RCC_Config.c **** 	//Set to 64MHz Correctly! :) 
  19:Drivers/System/RCC_Config.c ****  RCC->CFGR = RCC_CFGR_PLLMULL16 | RCC_CFGR_PPRE1_2;
  64              		.loc 1 19 2 is_stmt 1 view .LVU13
  65              		.loc 1 19 12 is_stmt 0 view .LVU14
  66 0034 134A     		ldr	r2, .L5+8
  67 0036 5A60     		str	r2, [r3, #4]
  20:Drivers/System/RCC_Config.c ****  while (!(RCC->CR & RCC_CR_HSIRDY ));
  68              		.loc 1 20 2 is_stmt 1 view .LVU15
  69              	.L2:
  70              		.loc 1 20 37 discriminator 1 view .LVU16
  71              		.loc 1 20 8 discriminator 1 view .LVU17
  72              		.loc 1 20 14 is_stmt 0 discriminator 1 view .LVU18
  73 0038 104B     		ldr	r3, .L5
  74 003a 1B68     		ldr	r3, [r3]
  75              		.loc 1 20 8 discriminator 1 view .LVU19
  76 003c 13F0020F 		tst	r3, #2
  77 0040 FAD0     		beq	.L2
  21:Drivers/System/RCC_Config.c ****  RCC->CR |=  RCC_CR_PLLON;
  78              		.loc 1 21 2 is_stmt 1 view .LVU20
  79              		.loc 1 21 10 is_stmt 0 view .LVU21
  80 0042 0E4A     		ldr	r2, .L5
  81 0044 1368     		ldr	r3, [r2]
  82 0046 43F08073 		orr	r3, r3, #16777216
  83 004a 1360     		str	r3, [r2]
  22:Drivers/System/RCC_Config.c ****  FLASH->ACR |= FLASH_ACR_LATENCY_1;
  84              		.loc 1 22 2 is_stmt 1 view .LVU22
  85              		.loc 1 22 13 is_stmt 0 view .LVU23
  86 004c 02F58052 		add	r2, r2, #4096
  87 0050 1368     		ldr	r3, [r2]
  88 0052 43F00203 		orr	r3, r3, #2
  89 0056 1360     		str	r3, [r2]
  23:Drivers/System/RCC_Config.c ****  while (!(RCC->CR & RCC_CR_PLLRDY));
  90              		.loc 1 23 2 is_stmt 1 view .LVU24
  91              	.L3:
  92              		.loc 1 23 36 discriminator 1 view .LVU25
ARM GAS  C:\Users\Teodor\AppData\Local\Temp\ccJrDpuO.s 			page 3


  93              		.loc 1 23 8 discriminator 1 view .LVU26
  94              		.loc 1 23 14 is_stmt 0 discriminator 1 view .LVU27
  95 0058 084B     		ldr	r3, .L5
  96 005a 1B68     		ldr	r3, [r3]
  97              		.loc 1 23 8 discriminator 1 view .LVU28
  98 005c 13F0007F 		tst	r3, #33554432
  99 0060 FAD0     		beq	.L3
  24:Drivers/System/RCC_Config.c ****  RCC->CFGR |= RCC_CFGR_SW_PLL;
 100              		.loc 1 24 2 is_stmt 1 view .LVU29
 101              		.loc 1 24 12 is_stmt 0 view .LVU30
 102 0062 064A     		ldr	r2, .L5
 103 0064 5368     		ldr	r3, [r2, #4]
 104 0066 43F00203 		orr	r3, r3, #2
 105 006a 5360     		str	r3, [r2, #4]
  25:Drivers/System/RCC_Config.c ****  while ( (RCC->CFGR & RCC_CFGR_SWS) != RCC_CFGR_SWS_PLL);
 106              		.loc 1 25 2 is_stmt 1 view .LVU31
 107              	.L4:
 108              		.loc 1 25 57 discriminator 1 view .LVU32
 109              		.loc 1 25 8 discriminator 1 view .LVU33
 110              		.loc 1 25 14 is_stmt 0 discriminator 1 view .LVU34
 111 006c 034B     		ldr	r3, .L5
 112 006e 5B68     		ldr	r3, [r3, #4]
 113              		.loc 1 25 21 discriminator 1 view .LVU35
 114 0070 03F00C03 		and	r3, r3, #12
 115              		.loc 1 25 8 discriminator 1 view .LVU36
 116 0074 082B     		cmp	r3, #8
 117 0076 F9D1     		bne	.L4
  26:Drivers/System/RCC_Config.c **** }
 118              		.loc 1 26 1 view .LVU37
 119 0078 7047     		bx	lr
 120              	.L6:
 121 007a 00BF     		.align	2
 122              	.L5:
 123 007c 00100240 		.word	1073876992
 124 0080 0000FFF8 		.word	-117506048
 125 0084 00043800 		.word	3671040
 126              		.cfi_endproc
 127              	.LFE65:
 129              		.text
 130              	.Letext0:
 131              		.file 2 "d:\\gnu_tools\\gnu arm embedded toolchain\\10 2021.10\\arm-none-eabi\\include\\machine\\_
 132              		.file 3 "d:\\gnu_tools\\gnu arm embedded toolchain\\10 2021.10\\arm-none-eabi\\include\\sys\\_stdi
 133              		.file 4 "Drivers/CMSIS/Device/ST/STM32F1xx/Include/stm32f103xb.h"
ARM GAS  C:\Users\Teodor\AppData\Local\Temp\ccJrDpuO.s 			page 4


DEFINED SYMBOLS
                            *ABS*:00000000 RCC_Config.c
C:\Users\Teodor\AppData\Local\Temp\ccJrDpuO.s:18     .text.PLL_Config64MHZ:00000000 $t
C:\Users\Teodor\AppData\Local\Temp\ccJrDpuO.s:24     .text.PLL_Config64MHZ:00000000 PLL_Config64MHZ
C:\Users\Teodor\AppData\Local\Temp\ccJrDpuO.s:123    .text.PLL_Config64MHZ:0000007c $d

NO UNDEFINED SYMBOLS
