ARM GAS  C:\Users\Teodor\AppData\Local\Temp\ccLOSTGe.s 			page 1


   1              		.cpu cortex-m3
   2              		.arch armv7-m
   3              		.fpu softvfp
   4              		.eabi_attribute 20, 1
   5              		.eabi_attribute 21, 1
   6              		.eabi_attribute 23, 3
   7              		.eabi_attribute 24, 1
   8              		.eabi_attribute 25, 1
   9              		.eabi_attribute 26, 1
  10              		.eabi_attribute 30, 1
  11              		.eabi_attribute 34, 1
  12              		.eabi_attribute 18, 4
  13              		.file	"Contex3.c"
  14              		.text
  15              	.Ltext0:
  16              		.cfi_sections	.debug_frame
  17              		.section	.rodata.TaskContex3.str1.4,"aMS",%progbits,1
  18              		.align	2
  19              	.LC0:
  20 0000 436F6E74 		.ascii	"Contex3 Start! \000"
  20      65783320 
  20      53746172 
  20      74212000 
  21              		.align	2
  22              	.LC1:
  23 0010 48656C6C 		.ascii	"Hello Message From Contex3\000"
  23      6F204D65 
  23      73736167 
  23      65204672 
  23      6F6D2043 
  24 002b 00       		.align	2
  25              	.LC2:
  26 002c 46494C45 		.ascii	"FILE:%s() FUN:%s() LOG: Some more extra messages!\000"
  26      3A257328 
  26      29204655 
  26      4E3A2573 
  26      2829204C 
  27 005e 0000     		.align	2
  28              	.LC3:
  29 0060 436F6E74 		.ascii	"Contex3.c\000"
  29      6578332E 
  29      6300
  30 006a 0000     		.align	2
  31              	.LC4:
  32 006c 46494C45 		.ascii	"FILE:%s() FUN:%s() LOG: I belive you care about you"
  32      3A257328 
  32      29204655 
  32      4E3A2573 
  32      2829204C 
  33 009f 7273656C 		.ascii	"rself :) \000"
  33      66203A29 
  33      2000
  34              		.section	.text.TaskContex3,"ax",%progbits
  35              		.align	1
  36              		.global	TaskContex3
  37              		.syntax unified
  38              		.thumb
ARM GAS  C:\Users\Teodor\AppData\Local\Temp\ccLOSTGe.s 			page 2


  39              		.thumb_func
  41              	TaskContex3:
  42              	.LFB65:
  43              		.file 1 "Contex3.c"
   1:Contex3.c     **** #define DLT_LOG_CONTEX           "CTX3"
   2:Contex3.c     **** #define DLT_LOG_APPID            "NUM3"
   3:Contex3.c     **** 
   4:Contex3.c     **** 
   5:Contex3.c     **** #include "DLTuc.h"
   6:Contex3.c     **** #include "nnRTOS.h"
   7:Contex3.c     **** 
   8:Contex3.c     **** void TaskContex3(void)
   9:Contex3.c     **** {
  44              		.loc 1 9 1 view -0
  45              		.cfi_startproc
  46              		@ Volatile: function does not return.
  47              		@ args = 0, pretend = 0, frame = 0
  48              		@ frame_needed = 0, uses_anonymous_args = 0
  49 0000 80B5     		push	{r7, lr}
  50              	.LCFI0:
  51              		.cfi_def_cfa_offset 8
  52              		.cfi_offset 7, -8
  53              		.cfi_offset 14, -4
  54 0002 82B0     		sub	sp, sp, #8
  55              	.LCFI1:
  56              		.cfi_def_cfa_offset 16
  10:Contex3.c     ****     LOG("Contex3 Start! ")
  57              		.loc 1 10 5 view .LVU1
  58              		.loc 1 10 5 view .LVU2
  59 0004 124B     		ldr	r3, .L4
  60 0006 134A     		ldr	r2, .L4+4
  61 0008 1349     		ldr	r1, .L4+8
  62 000a 0420     		movs	r0, #4
  63 000c FFF7FEFF 		bl	DLTuc_LogOutVarArgs
  64              	.LVL0:
  65              	.L2:
  11:Contex3.c     **** 
  12:Contex3.c     ****     while(1)
  66              		.loc 1 12 5 discriminator 1 view .LVU3
  13:Contex3.c     ****     {
  14:Contex3.c     ****     LOG("Hello Message From Contex3")
  67              		.loc 1 14 5 discriminator 1 view .LVU4
  68              		.loc 1 14 5 discriminator 1 view .LVU5
  69 0010 104D     		ldr	r5, .L4+4
  70 0012 114C     		ldr	r4, .L4+8
  71 0014 114B     		ldr	r3, .L4+12
  72 0016 2A46     		mov	r2, r5
  73 0018 2146     		mov	r1, r4
  74 001a 0420     		movs	r0, #4
  75 001c FFF7FEFF 		bl	DLTuc_LogOutVarArgs
  76              	.LVL1:
  15:Contex3.c     ****     LOGFF(DL_FATAL,"Some more extra messages!")
  77              		.loc 1 15 5 discriminator 1 view .LVU6
  78              		.loc 1 15 5 discriminator 1 view .LVU7
  79 0020 0F4F     		ldr	r7, .L4+16
  80 0022 0197     		str	r7, [sp, #4]
  81 0024 0F4E     		ldr	r6, .L4+20
ARM GAS  C:\Users\Teodor\AppData\Local\Temp\ccLOSTGe.s 			page 3


  82 0026 0096     		str	r6, [sp]
  83 0028 0F4B     		ldr	r3, .L4+24
  84 002a 2A46     		mov	r2, r5
  85 002c 2146     		mov	r1, r4
  86 002e 0120     		movs	r0, #1
  87 0030 FFF7FEFF 		bl	DLTuc_LogOutVarArgs
  88              	.LVL2:
  16:Contex3.c     ****     LOGFF(DL_FATAL,"I belive you care about yourself :) ")
  89              		.loc 1 16 5 discriminator 1 view .LVU8
  90              		.loc 1 16 5 discriminator 1 view .LVU9
  91 0034 0197     		str	r7, [sp, #4]
  92 0036 0096     		str	r6, [sp]
  93 0038 0C4B     		ldr	r3, .L4+28
  94 003a 2A46     		mov	r2, r5
  95 003c 2146     		mov	r1, r4
  96 003e 0120     		movs	r0, #1
  97 0040 FFF7FEFF 		bl	DLTuc_LogOutVarArgs
  98              	.LVL3:
  17:Contex3.c     ****     nnOsThreadSleep(4000);
  99              		.loc 1 17 5 discriminator 1 view .LVU10
 100 0044 4FF47A60 		mov	r0, #4000
 101 0048 FFF7FEFF 		bl	nnOsThreadSleep
 102              	.LVL4:
  12:Contex3.c     ****     {
 103              		.loc 1 12 10 discriminator 1 view .LVU11
 104 004c E0E7     		b	.L2
 105              	.L5:
 106 004e 00BF     		.align	2
 107              	.L4:
 108 0050 00000000 		.word	.LC0
 109 0054 33585443 		.word	1129601075
 110 0058 334D554E 		.word	1314213171
 111 005c 10000000 		.word	.LC1
 112 0060 00000000 		.word	.LANCHOR0
 113 0064 60000000 		.word	.LC3
 114 0068 2C000000 		.word	.LC2
 115 006c 6C000000 		.word	.LC4
 116              		.cfi_endproc
 117              	.LFE65:
 119              		.section	.rodata.__FUNCTION__.0,"a"
 120              		.align	2
 121              		.set	.LANCHOR0,. + 0
 124              	__FUNCTION__.0:
 125 0000 5461736B 		.ascii	"TaskContex3\000"
 125      436F6E74 
 125      65783300 
 126              		.text
 127              	.Letext0:
 128              		.file 2 "d:\\gnu_tools\\gnu arm embedded toolchain\\10 2021.10\\arm-none-eabi\\include\\machine\\_
 129              		.file 3 "d:\\gnu_tools\\gnu arm embedded toolchain\\10 2021.10\\arm-none-eabi\\include\\sys\\_stdi
 130              		.file 4 "../../src/DLTuc.h"
 131              		.file 5 "nnRtos/inc/nnRTOS.h"
ARM GAS  C:\Users\Teodor\AppData\Local\Temp\ccLOSTGe.s 			page 4


DEFINED SYMBOLS
                            *ABS*:00000000 Contex3.c
C:\Users\Teodor\AppData\Local\Temp\ccLOSTGe.s:18     .rodata.TaskContex3.str1.4:00000000 $d
C:\Users\Teodor\AppData\Local\Temp\ccLOSTGe.s:35     .text.TaskContex3:00000000 $t
C:\Users\Teodor\AppData\Local\Temp\ccLOSTGe.s:41     .text.TaskContex3:00000000 TaskContex3
C:\Users\Teodor\AppData\Local\Temp\ccLOSTGe.s:108    .text.TaskContex3:00000050 $d
C:\Users\Teodor\AppData\Local\Temp\ccLOSTGe.s:120    .rodata.__FUNCTION__.0:00000000 $d
C:\Users\Teodor\AppData\Local\Temp\ccLOSTGe.s:124    .rodata.__FUNCTION__.0:00000000 __FUNCTION__.0

UNDEFINED SYMBOLS
DLTuc_LogOutVarArgs
nnOsThreadSleep
