ARM GAS  C:\Users\Teodor\AppData\Local\Temp\ccQ3MuI9.s 			page 1


   1              		.cpu cortex-m3
   2              		.arch armv7-m
   3              		.fpu softvfp
   4              		.eabi_attribute 20, 1
   5              		.eabi_attribute 21, 1
   6              		.eabi_attribute 23, 3
   7              		.eabi_attribute 24, 1
   8              		.eabi_attribute 25, 1
   9              		.eabi_attribute 26, 1
  10              		.eabi_attribute 30, 1
  11              		.eabi_attribute 34, 1
  12              		.eabi_attribute 18, 4
  13              		.file	"Contex2.c"
  14              		.text
  15              	.Ltext0:
  16              		.cfi_sections	.debug_frame
  17              		.section	.rodata.TaskContex2.str1.4,"aMS",%progbits,1
  18              		.align	2
  19              	.LC0:
  20 0000 436F6E74 		.ascii	"Contex2 Start! \000"
  20      65783220 
  20      53746172 
  20      74212000 
  21              		.align	2
  22              	.LC1:
  23 0010 48656C6C 		.ascii	"Hello DLT Again Arg1 %d Arg2 :%d\000"
  23      6F20444C 
  23      54204167 
  23      61696E20 
  23      41726731 
  24 0031 000000   		.align	2
  25              	.LC2:
  26 0034 46494C45 		.ascii	"FILE:%s() FUN:%s() LOG: GENERALLY DLT Again1\000"
  26      3A257328 
  26      29204655 
  26      4E3A2573 
  26      2829204C 
  27 0061 000000   		.align	2
  28              	.LC3:
  29 0064 436F6E74 		.ascii	"Contex2.c\000"
  29      6578322E 
  29      6300
  30 006e 0000     		.align	2
  31              	.LC4:
  32 0070 46554E3A 		.ascii	"FUN:%s() LOG: AnotherTest DLT Again\000"
  32      25732829 
  32      204C4F47 
  32      3A20416E 
  32      6F746865 
  33              		.align	2
  34              	.LC5:
  35 0094 416E6F74 		.ascii	"AnotherTest2 DLT Again\000"
  35      68657254 
  35      65737432 
  35      20444C54 
  35      20416761 
  36 00ab 00       		.align	2
ARM GAS  C:\Users\Teodor\AppData\Local\Temp\ccQ3MuI9.s 			page 2


  37              	.LC6:
  38 00ac 4F72616E 		.ascii	"Orange is sweet fruit\000"
  38      67652069 
  38      73207377 
  38      65657420 
  38      66727569 
  39              		.section	.text.TaskContex2,"ax",%progbits
  40              		.align	1
  41              		.global	TaskContex2
  42              		.syntax unified
  43              		.thumb
  44              		.thumb_func
  46              	TaskContex2:
  47              	.LFB65:
  48              		.file 1 "Contex2.c"
   1:Contex2.c     **** #define DLT_LOG_CONTEX           "CTX2"
   2:Contex2.c     **** #define DLT_LOG_APPID            "NUM2"
   3:Contex2.c     **** 
   4:Contex2.c     **** 
   5:Contex2.c     **** #include "DLTuc.h"
   6:Contex2.c     **** #include "nnRTOS.h"
   7:Contex2.c     **** 
   8:Contex2.c     **** void TaskContex2(void)
   9:Contex2.c     **** {
  49              		.loc 1 9 1 view -0
  50              		.cfi_startproc
  51              		@ Volatile: function does not return.
  52              		@ args = 0, pretend = 0, frame = 0
  53              		@ frame_needed = 0, uses_anonymous_args = 0
  54 0000 00B5     		push	{lr}
  55              	.LCFI0:
  56              		.cfi_def_cfa_offset 4
  57              		.cfi_offset 14, -4
  58 0002 83B0     		sub	sp, sp, #12
  59              	.LCFI1:
  60              		.cfi_def_cfa_offset 16
  10:Contex2.c     ****     LOG("Contex2 Start! ")
  61              		.loc 1 10 5 view .LVU1
  62              		.loc 1 10 5 view .LVU2
  63 0004 1A4B     		ldr	r3, .L4
  64 0006 1B4A     		ldr	r2, .L4+4
  65 0008 1B49     		ldr	r1, .L4+8
  66 000a 0420     		movs	r0, #4
  67 000c FFF7FEFF 		bl	DLTuc_LogOutVarArgs
  68              	.LVL0:
  69              	.L2:
  11:Contex2.c     **** 
  12:Contex2.c     ****     while(1)
  70              		.loc 1 12 5 discriminator 1 view .LVU3
  13:Contex2.c     ****     {
  14:Contex2.c     ****     LOGL(DL_ERROR,  "Hello DLT Again Arg1 %d Arg2 :%d" , 2565, 56);
  71              		.loc 1 14 5 discriminator 1 view .LVU4
  72              		.loc 1 14 5 discriminator 1 view .LVU5
  73 0010 184D     		ldr	r5, .L4+4
  74 0012 194C     		ldr	r4, .L4+8
  75 0014 3823     		movs	r3, #56
  76 0016 0193     		str	r3, [sp, #4]
ARM GAS  C:\Users\Teodor\AppData\Local\Temp\ccQ3MuI9.s 			page 3


  77 0018 40F60523 		movw	r3, #2565
  78 001c 0093     		str	r3, [sp]
  79 001e 174B     		ldr	r3, .L4+12
  80 0020 2A46     		mov	r2, r5
  81 0022 2146     		mov	r1, r4
  82 0024 0220     		movs	r0, #2
  83 0026 FFF7FEFF 		bl	DLTuc_LogOutVarArgs
  84              	.LVL1:
  85              		.loc 1 14 67 discriminator 1 view .LVU6
  15:Contex2.c     ****     LOGFF(DL_FATAL, "GENERALLY DLT Again1");
  86              		.loc 1 15 5 discriminator 1 view .LVU7
  87              		.loc 1 15 5 discriminator 1 view .LVU8
  88 002a 154E     		ldr	r6, .L4+16
  89 002c 0196     		str	r6, [sp, #4]
  90 002e 154B     		ldr	r3, .L4+20
  91 0030 0093     		str	r3, [sp]
  92 0032 154B     		ldr	r3, .L4+24
  93 0034 2A46     		mov	r2, r5
  94 0036 2146     		mov	r1, r4
  95 0038 0120     		movs	r0, #1
  96 003a FFF7FEFF 		bl	DLTuc_LogOutVarArgs
  97              	.LVL2:
  98              		.loc 1 15 44 discriminator 1 view .LVU9
  16:Contex2.c     ****     LOGF(DL_DEBUG,  "AnotherTest DLT Again");
  99              		.loc 1 16 5 discriminator 1 view .LVU10
 100              		.loc 1 16 5 discriminator 1 view .LVU11
 101 003e 0096     		str	r6, [sp]
 102 0040 124B     		ldr	r3, .L4+28
 103 0042 2A46     		mov	r2, r5
 104 0044 2146     		mov	r1, r4
 105 0046 0520     		movs	r0, #5
 106 0048 FFF7FEFF 		bl	DLTuc_LogOutVarArgs
 107              	.LVL3:
 108              		.loc 1 16 45 discriminator 1 view .LVU12
  17:Contex2.c     ****     LOG("AnotherTest2 DLT Again");
 109              		.loc 1 17 5 discriminator 1 view .LVU13
 110              		.loc 1 17 5 discriminator 1 view .LVU14
 111 004c 104B     		ldr	r3, .L4+32
 112 004e 2A46     		mov	r2, r5
 113 0050 2146     		mov	r1, r4
 114 0052 0420     		movs	r0, #4
 115 0054 FFF7FEFF 		bl	DLTuc_LogOutVarArgs
 116              	.LVL4:
 117              		.loc 1 17 34 discriminator 1 view .LVU15
  18:Contex2.c     ****     LOGL(DL_WARN, "Orange is sweet fruit");
 118              		.loc 1 18 5 discriminator 1 view .LVU16
 119              		.loc 1 18 5 discriminator 1 view .LVU17
 120 0058 0E4B     		ldr	r3, .L4+36
 121 005a 2A46     		mov	r2, r5
 122 005c 2146     		mov	r1, r4
 123 005e 0320     		movs	r0, #3
 124 0060 FFF7FEFF 		bl	DLTuc_LogOutVarArgs
 125              	.LVL5:
 126              		.loc 1 18 43 discriminator 1 view .LVU18
  19:Contex2.c     ****     nnOsThreadSleep(2000);
 127              		.loc 1 19 5 discriminator 1 view .LVU19
 128 0064 4FF4FA60 		mov	r0, #2000
ARM GAS  C:\Users\Teodor\AppData\Local\Temp\ccQ3MuI9.s 			page 4


 129 0068 FFF7FEFF 		bl	nnOsThreadSleep
 130              	.LVL6:
  12:Contex2.c     ****     {
 131              		.loc 1 12 10 discriminator 1 view .LVU20
 132 006c D0E7     		b	.L2
 133              	.L5:
 134 006e 00BF     		.align	2
 135              	.L4:
 136 0070 00000000 		.word	.LC0
 137 0074 32585443 		.word	1129601074
 138 0078 324D554E 		.word	1314213170
 139 007c 10000000 		.word	.LC1
 140 0080 00000000 		.word	.LANCHOR0
 141 0084 64000000 		.word	.LC3
 142 0088 34000000 		.word	.LC2
 143 008c 70000000 		.word	.LC4
 144 0090 94000000 		.word	.LC5
 145 0094 AC000000 		.word	.LC6
 146              		.cfi_endproc
 147              	.LFE65:
 149              		.section	.rodata.__FUNCTION__.0,"a"
 150              		.align	2
 151              		.set	.LANCHOR0,. + 0
 154              	__FUNCTION__.0:
 155 0000 5461736B 		.ascii	"TaskContex2\000"
 155      436F6E74 
 155      65783200 
 156              		.text
 157              	.Letext0:
 158              		.file 2 "d:\\gnu_tools\\gnu arm embedded toolchain\\10 2021.10\\arm-none-eabi\\include\\machine\\_
 159              		.file 3 "d:\\gnu_tools\\gnu arm embedded toolchain\\10 2021.10\\arm-none-eabi\\include\\sys\\_stdi
 160              		.file 4 "../../src/DLTuc.h"
 161              		.file 5 "nnRtos/inc/nnRTOS.h"
ARM GAS  C:\Users\Teodor\AppData\Local\Temp\ccQ3MuI9.s 			page 5


DEFINED SYMBOLS
                            *ABS*:00000000 Contex2.c
C:\Users\Teodor\AppData\Local\Temp\ccQ3MuI9.s:18     .rodata.TaskContex2.str1.4:00000000 $d
C:\Users\Teodor\AppData\Local\Temp\ccQ3MuI9.s:40     .text.TaskContex2:00000000 $t
C:\Users\Teodor\AppData\Local\Temp\ccQ3MuI9.s:46     .text.TaskContex2:00000000 TaskContex2
C:\Users\Teodor\AppData\Local\Temp\ccQ3MuI9.s:136    .text.TaskContex2:00000070 $d
C:\Users\Teodor\AppData\Local\Temp\ccQ3MuI9.s:150    .rodata.__FUNCTION__.0:00000000 $d
C:\Users\Teodor\AppData\Local\Temp\ccQ3MuI9.s:154    .rodata.__FUNCTION__.0:00000000 __FUNCTION__.0

UNDEFINED SYMBOLS
DLTuc_LogOutVarArgs
nnOsThreadSleep
