ARM GAS  C:\Users\Teodor\AppData\Local\Temp\ccsgjqo4.s 			page 1


   1              		.cpu cortex-m3
   2              		.arch armv7-m
   3              		.fpu softvfp
   4              		.eabi_attribute 20, 1
   5              		.eabi_attribute 21, 1
   6              		.eabi_attribute 23, 3
   7              		.eabi_attribute 24, 1
   8              		.eabi_attribute 25, 1
   9              		.eabi_attribute 26, 1
  10              		.eabi_attribute 30, 1
  11              		.eabi_attribute 34, 1
  12              		.eabi_attribute 18, 4
  13              		.file	"queues.c"
  14              		.text
  15              	.Ltext0:
  16              		.cfi_sections	.debug_frame
  17              		.section	.text.nnOsMailboxInit,"ax",%progbits
  18              		.align	1
  19              		.global	nnOsMailboxInit
  20              		.syntax unified
  21              		.thumb
  22              		.thumb_func
  24              	nnOsMailboxInit:
  25              	.LFB65:
  26              		.file 1 "nnRtos/src/queues.c"
   1:nnRtos/src/queues.c **** #include "nnRTOS.h"
   2:nnRtos/src/queues.c **** 
   3:nnRtos/src/queues.c **** #define FIFO_SIZE			15
   4:nnRtos/src/queues.c **** 
   5:nnRtos/src/queues.c **** 
   6:nnRtos/src/queues.c **** //TODO: write useable functions for mailboxes ... e.g. forwarding the address of a queue and many m
   7:nnRtos/src/queues.c **** static uint8_t  MB_hasdata;
   8:nnRtos/src/queues.c **** static uint32_t MB_Data;
   9:nnRtos/src/queues.c **** static int32_t  MB_Sem;
  10:nnRtos/src/queues.c **** 
  11:nnRtos/src/queues.c **** void nnOsMailboxInit(void){
  27              		.loc 1 11 27 view -0
  28              		.cfi_startproc
  29              		@ args = 0, pretend = 0, frame = 0
  30              		@ frame_needed = 0, uses_anonymous_args = 0
  31 0000 08B5     		push	{r3, lr}
  32              	.LCFI0:
  33              		.cfi_def_cfa_offset 8
  34              		.cfi_offset 3, -8
  35              		.cfi_offset 14, -4
  12:nnRtos/src/queues.c **** 
  13:nnRtos/src/queues.c ****   MB_hasdata = 0;
  36              		.loc 1 13 3 view .LVU1
  37              		.loc 1 13 14 is_stmt 0 view .LVU2
  38 0002 0021     		movs	r1, #0
  39 0004 034B     		ldr	r3, .L3
  40 0006 1970     		strb	r1, [r3]
  14:nnRtos/src/queues.c ****   MB_Data  = 0;
  41              		.loc 1 14 3 is_stmt 1 view .LVU3
  42              		.loc 1 14 12 is_stmt 0 view .LVU4
  43 0008 034B     		ldr	r3, .L3+4
  44 000a 1960     		str	r1, [r3]
ARM GAS  C:\Users\Teodor\AppData\Local\Temp\ccsgjqo4.s 			page 2


  15:nnRtos/src/queues.c ****   nnOsSemaphoreInit(&MB_Sem,0);	
  45              		.loc 1 15 3 is_stmt 1 view .LVU5
  46 000c 0348     		ldr	r0, .L3+8
  47 000e FFF7FEFF 		bl	nnOsSemaphoreInit
  48              	.LVL0:
  16:nnRtos/src/queues.c **** }
  49              		.loc 1 16 1 is_stmt 0 view .LVU6
  50 0012 08BD     		pop	{r3, pc}
  51              	.L4:
  52              		.align	2
  53              	.L3:
  54 0014 00000000 		.word	.LANCHOR0
  55 0018 00000000 		.word	.LANCHOR1
  56 001c 00000000 		.word	.LANCHOR2
  57              		.cfi_endproc
  58              	.LFE65:
  60              		.section	.text.nnOsMailboxSend,"ax",%progbits
  61              		.align	1
  62              		.global	nnOsMailboxSend
  63              		.syntax unified
  64              		.thumb
  65              		.thumb_func
  67              	nnOsMailboxSend:
  68              	.LVL1:
  69              	.LFB66:
  17:nnRtos/src/queues.c **** 
  18:nnRtos/src/queues.c **** void nnOsMailboxSend(uint32_t data){
  70              		.loc 1 18 36 is_stmt 1 view -0
  71              		.cfi_startproc
  72              		@ args = 0, pretend = 0, frame = 0
  73              		@ frame_needed = 0, uses_anonymous_args = 0
  74              		.loc 1 18 36 is_stmt 0 view .LVU8
  75 0000 08B5     		push	{r3, lr}
  76              	.LCFI1:
  77              		.cfi_def_cfa_offset 8
  78              		.cfi_offset 3, -8
  79              		.cfi_offset 14, -4
  19:nnRtos/src/queues.c **** 
  20:nnRtos/src/queues.c **** 	  __disable_irq();
  80              		.loc 1 20 4 is_stmt 1 view .LVU9
  81              	.LBB16:
  82              	.LBI16:
  83              		.file 2 "Drivers/CMSIS/Core/Include/cmsis_gcc.h"
   1:Drivers/CMSIS/Core/Include/cmsis_gcc.h **** /**************************************************************************//**
   2:Drivers/CMSIS/Core/Include/cmsis_gcc.h ****  * @file     cmsis_gcc.h
   3:Drivers/CMSIS/Core/Include/cmsis_gcc.h ****  * @brief    CMSIS compiler GCC header file
   4:Drivers/CMSIS/Core/Include/cmsis_gcc.h ****  * @version  V5.0.4
   5:Drivers/CMSIS/Core/Include/cmsis_gcc.h ****  * @date     09. April 2018
   6:Drivers/CMSIS/Core/Include/cmsis_gcc.h ****  ******************************************************************************/
   7:Drivers/CMSIS/Core/Include/cmsis_gcc.h **** /*
   8:Drivers/CMSIS/Core/Include/cmsis_gcc.h ****  * Copyright (c) 2009-2018 Arm Limited. All rights reserved.
   9:Drivers/CMSIS/Core/Include/cmsis_gcc.h ****  *
  10:Drivers/CMSIS/Core/Include/cmsis_gcc.h ****  * SPDX-License-Identifier: Apache-2.0
  11:Drivers/CMSIS/Core/Include/cmsis_gcc.h ****  *
  12:Drivers/CMSIS/Core/Include/cmsis_gcc.h ****  * Licensed under the Apache License, Version 2.0 (the License); you may
  13:Drivers/CMSIS/Core/Include/cmsis_gcc.h ****  * not use this file except in compliance with the License.
  14:Drivers/CMSIS/Core/Include/cmsis_gcc.h ****  * You may obtain a copy of the License at
ARM GAS  C:\Users\Teodor\AppData\Local\Temp\ccsgjqo4.s 			page 3


  15:Drivers/CMSIS/Core/Include/cmsis_gcc.h ****  *
  16:Drivers/CMSIS/Core/Include/cmsis_gcc.h ****  * www.apache.org/licenses/LICENSE-2.0
  17:Drivers/CMSIS/Core/Include/cmsis_gcc.h ****  *
  18:Drivers/CMSIS/Core/Include/cmsis_gcc.h ****  * Unless required by applicable law or agreed to in writing, software
  19:Drivers/CMSIS/Core/Include/cmsis_gcc.h ****  * distributed under the License is distributed on an AS IS BASIS, WITHOUT
  20:Drivers/CMSIS/Core/Include/cmsis_gcc.h ****  * WARRANTIES OR CONDITIONS OF ANY KIND, either express or implied.
  21:Drivers/CMSIS/Core/Include/cmsis_gcc.h ****  * See the License for the specific language governing permissions and
  22:Drivers/CMSIS/Core/Include/cmsis_gcc.h ****  * limitations under the License.
  23:Drivers/CMSIS/Core/Include/cmsis_gcc.h ****  */
  24:Drivers/CMSIS/Core/Include/cmsis_gcc.h **** 
  25:Drivers/CMSIS/Core/Include/cmsis_gcc.h **** #ifndef __CMSIS_GCC_H
  26:Drivers/CMSIS/Core/Include/cmsis_gcc.h **** #define __CMSIS_GCC_H
  27:Drivers/CMSIS/Core/Include/cmsis_gcc.h **** 
  28:Drivers/CMSIS/Core/Include/cmsis_gcc.h **** /* ignore some GCC warnings */
  29:Drivers/CMSIS/Core/Include/cmsis_gcc.h **** #pragma GCC diagnostic push
  30:Drivers/CMSIS/Core/Include/cmsis_gcc.h **** #pragma GCC diagnostic ignored "-Wsign-conversion"
  31:Drivers/CMSIS/Core/Include/cmsis_gcc.h **** #pragma GCC diagnostic ignored "-Wconversion"
  32:Drivers/CMSIS/Core/Include/cmsis_gcc.h **** #pragma GCC diagnostic ignored "-Wunused-parameter"
  33:Drivers/CMSIS/Core/Include/cmsis_gcc.h **** 
  34:Drivers/CMSIS/Core/Include/cmsis_gcc.h **** /* Fallback for __has_builtin */
  35:Drivers/CMSIS/Core/Include/cmsis_gcc.h **** #ifndef __has_builtin
  36:Drivers/CMSIS/Core/Include/cmsis_gcc.h ****   #define __has_builtin(x) (0)
  37:Drivers/CMSIS/Core/Include/cmsis_gcc.h **** #endif
  38:Drivers/CMSIS/Core/Include/cmsis_gcc.h **** 
  39:Drivers/CMSIS/Core/Include/cmsis_gcc.h **** /* CMSIS compiler specific defines */
  40:Drivers/CMSIS/Core/Include/cmsis_gcc.h **** #ifndef   __ASM
  41:Drivers/CMSIS/Core/Include/cmsis_gcc.h ****   #define __ASM                                  __asm
  42:Drivers/CMSIS/Core/Include/cmsis_gcc.h **** #endif
  43:Drivers/CMSIS/Core/Include/cmsis_gcc.h **** #ifndef   __INLINE
  44:Drivers/CMSIS/Core/Include/cmsis_gcc.h ****   #define __INLINE                               inline
  45:Drivers/CMSIS/Core/Include/cmsis_gcc.h **** #endif
  46:Drivers/CMSIS/Core/Include/cmsis_gcc.h **** #ifndef   __STATIC_INLINE
  47:Drivers/CMSIS/Core/Include/cmsis_gcc.h ****   #define __STATIC_INLINE                        static inline
  48:Drivers/CMSIS/Core/Include/cmsis_gcc.h **** #endif
  49:Drivers/CMSIS/Core/Include/cmsis_gcc.h **** #ifndef   __STATIC_FORCEINLINE                 
  50:Drivers/CMSIS/Core/Include/cmsis_gcc.h ****   #define __STATIC_FORCEINLINE                   __attribute__((always_inline)) static inline
  51:Drivers/CMSIS/Core/Include/cmsis_gcc.h **** #endif                                           
  52:Drivers/CMSIS/Core/Include/cmsis_gcc.h **** #ifndef   __NO_RETURN
  53:Drivers/CMSIS/Core/Include/cmsis_gcc.h ****   #define __NO_RETURN                            __attribute__((__noreturn__))
  54:Drivers/CMSIS/Core/Include/cmsis_gcc.h **** #endif
  55:Drivers/CMSIS/Core/Include/cmsis_gcc.h **** #ifndef   __USED
  56:Drivers/CMSIS/Core/Include/cmsis_gcc.h ****   #define __USED                                 __attribute__((used))
  57:Drivers/CMSIS/Core/Include/cmsis_gcc.h **** #endif
  58:Drivers/CMSIS/Core/Include/cmsis_gcc.h **** #ifndef   __WEAK
  59:Drivers/CMSIS/Core/Include/cmsis_gcc.h ****   #define __WEAK                                 __attribute__((weak))
  60:Drivers/CMSIS/Core/Include/cmsis_gcc.h **** #endif
  61:Drivers/CMSIS/Core/Include/cmsis_gcc.h **** #ifndef   __PACKED
  62:Drivers/CMSIS/Core/Include/cmsis_gcc.h ****   #define __PACKED                               __attribute__((packed, aligned(1)))
  63:Drivers/CMSIS/Core/Include/cmsis_gcc.h **** #endif
  64:Drivers/CMSIS/Core/Include/cmsis_gcc.h **** #ifndef   __PACKED_STRUCT
  65:Drivers/CMSIS/Core/Include/cmsis_gcc.h ****   #define __PACKED_STRUCT                        struct __attribute__((packed, aligned(1)))
  66:Drivers/CMSIS/Core/Include/cmsis_gcc.h **** #endif
  67:Drivers/CMSIS/Core/Include/cmsis_gcc.h **** #ifndef   __PACKED_UNION
  68:Drivers/CMSIS/Core/Include/cmsis_gcc.h ****   #define __PACKED_UNION                         union __attribute__((packed, aligned(1)))
  69:Drivers/CMSIS/Core/Include/cmsis_gcc.h **** #endif
  70:Drivers/CMSIS/Core/Include/cmsis_gcc.h **** #ifndef   __UNALIGNED_UINT32        /* deprecated */
  71:Drivers/CMSIS/Core/Include/cmsis_gcc.h ****   #pragma GCC diagnostic push
ARM GAS  C:\Users\Teodor\AppData\Local\Temp\ccsgjqo4.s 			page 4


  72:Drivers/CMSIS/Core/Include/cmsis_gcc.h ****   #pragma GCC diagnostic ignored "-Wpacked"
  73:Drivers/CMSIS/Core/Include/cmsis_gcc.h ****   #pragma GCC diagnostic ignored "-Wattributes"
  74:Drivers/CMSIS/Core/Include/cmsis_gcc.h ****   struct __attribute__((packed)) T_UINT32 { uint32_t v; };
  75:Drivers/CMSIS/Core/Include/cmsis_gcc.h ****   #pragma GCC diagnostic pop
  76:Drivers/CMSIS/Core/Include/cmsis_gcc.h ****   #define __UNALIGNED_UINT32(x)                  (((struct T_UINT32 *)(x))->v)
  77:Drivers/CMSIS/Core/Include/cmsis_gcc.h **** #endif
  78:Drivers/CMSIS/Core/Include/cmsis_gcc.h **** #ifndef   __UNALIGNED_UINT16_WRITE
  79:Drivers/CMSIS/Core/Include/cmsis_gcc.h ****   #pragma GCC diagnostic push
  80:Drivers/CMSIS/Core/Include/cmsis_gcc.h ****   #pragma GCC diagnostic ignored "-Wpacked"
  81:Drivers/CMSIS/Core/Include/cmsis_gcc.h ****   #pragma GCC diagnostic ignored "-Wattributes"
  82:Drivers/CMSIS/Core/Include/cmsis_gcc.h ****   __PACKED_STRUCT T_UINT16_WRITE { uint16_t v; };
  83:Drivers/CMSIS/Core/Include/cmsis_gcc.h ****   #pragma GCC diagnostic pop
  84:Drivers/CMSIS/Core/Include/cmsis_gcc.h ****   #define __UNALIGNED_UINT16_WRITE(addr, val)    (void)((((struct T_UINT16_WRITE *)(void *)(addr))-
  85:Drivers/CMSIS/Core/Include/cmsis_gcc.h **** #endif
  86:Drivers/CMSIS/Core/Include/cmsis_gcc.h **** #ifndef   __UNALIGNED_UINT16_READ
  87:Drivers/CMSIS/Core/Include/cmsis_gcc.h ****   #pragma GCC diagnostic push
  88:Drivers/CMSIS/Core/Include/cmsis_gcc.h ****   #pragma GCC diagnostic ignored "-Wpacked"
  89:Drivers/CMSIS/Core/Include/cmsis_gcc.h ****   #pragma GCC diagnostic ignored "-Wattributes"
  90:Drivers/CMSIS/Core/Include/cmsis_gcc.h ****   __PACKED_STRUCT T_UINT16_READ { uint16_t v; };
  91:Drivers/CMSIS/Core/Include/cmsis_gcc.h ****   #pragma GCC diagnostic pop
  92:Drivers/CMSIS/Core/Include/cmsis_gcc.h ****   #define __UNALIGNED_UINT16_READ(addr)          (((const struct T_UINT16_READ *)(const void *)(add
  93:Drivers/CMSIS/Core/Include/cmsis_gcc.h **** #endif
  94:Drivers/CMSIS/Core/Include/cmsis_gcc.h **** #ifndef   __UNALIGNED_UINT32_WRITE
  95:Drivers/CMSIS/Core/Include/cmsis_gcc.h ****   #pragma GCC diagnostic push
  96:Drivers/CMSIS/Core/Include/cmsis_gcc.h ****   #pragma GCC diagnostic ignored "-Wpacked"
  97:Drivers/CMSIS/Core/Include/cmsis_gcc.h ****   #pragma GCC diagnostic ignored "-Wattributes"
  98:Drivers/CMSIS/Core/Include/cmsis_gcc.h ****   __PACKED_STRUCT T_UINT32_WRITE { uint32_t v; };
  99:Drivers/CMSIS/Core/Include/cmsis_gcc.h ****   #pragma GCC diagnostic pop
 100:Drivers/CMSIS/Core/Include/cmsis_gcc.h ****   #define __UNALIGNED_UINT32_WRITE(addr, val)    (void)((((struct T_UINT32_WRITE *)(void *)(addr))-
 101:Drivers/CMSIS/Core/Include/cmsis_gcc.h **** #endif
 102:Drivers/CMSIS/Core/Include/cmsis_gcc.h **** #ifndef   __UNALIGNED_UINT32_READ
 103:Drivers/CMSIS/Core/Include/cmsis_gcc.h ****   #pragma GCC diagnostic push
 104:Drivers/CMSIS/Core/Include/cmsis_gcc.h ****   #pragma GCC diagnostic ignored "-Wpacked"
 105:Drivers/CMSIS/Core/Include/cmsis_gcc.h ****   #pragma GCC diagnostic ignored "-Wattributes"
 106:Drivers/CMSIS/Core/Include/cmsis_gcc.h ****   __PACKED_STRUCT T_UINT32_READ { uint32_t v; };
 107:Drivers/CMSIS/Core/Include/cmsis_gcc.h ****   #pragma GCC diagnostic pop
 108:Drivers/CMSIS/Core/Include/cmsis_gcc.h ****   #define __UNALIGNED_UINT32_READ(addr)          (((const struct T_UINT32_READ *)(const void *)(add
 109:Drivers/CMSIS/Core/Include/cmsis_gcc.h **** #endif
 110:Drivers/CMSIS/Core/Include/cmsis_gcc.h **** #ifndef   __ALIGNED
 111:Drivers/CMSIS/Core/Include/cmsis_gcc.h ****   #define __ALIGNED(x)                           __attribute__((aligned(x)))
 112:Drivers/CMSIS/Core/Include/cmsis_gcc.h **** #endif
 113:Drivers/CMSIS/Core/Include/cmsis_gcc.h **** #ifndef   __RESTRICT
 114:Drivers/CMSIS/Core/Include/cmsis_gcc.h ****   #define __RESTRICT                             __restrict
 115:Drivers/CMSIS/Core/Include/cmsis_gcc.h **** #endif
 116:Drivers/CMSIS/Core/Include/cmsis_gcc.h **** 
 117:Drivers/CMSIS/Core/Include/cmsis_gcc.h **** 
 118:Drivers/CMSIS/Core/Include/cmsis_gcc.h **** /* ###########################  Core Function Access  ########################### */
 119:Drivers/CMSIS/Core/Include/cmsis_gcc.h **** /** \ingroup  CMSIS_Core_FunctionInterface
 120:Drivers/CMSIS/Core/Include/cmsis_gcc.h ****     \defgroup CMSIS_Core_RegAccFunctions CMSIS Core Register Access Functions
 121:Drivers/CMSIS/Core/Include/cmsis_gcc.h ****   @{
 122:Drivers/CMSIS/Core/Include/cmsis_gcc.h ****  */
 123:Drivers/CMSIS/Core/Include/cmsis_gcc.h **** 
 124:Drivers/CMSIS/Core/Include/cmsis_gcc.h **** /**
 125:Drivers/CMSIS/Core/Include/cmsis_gcc.h ****   \brief   Enable IRQ Interrupts
 126:Drivers/CMSIS/Core/Include/cmsis_gcc.h ****   \details Enables IRQ interrupts by clearing the I-bit in the CPSR.
 127:Drivers/CMSIS/Core/Include/cmsis_gcc.h ****            Can only be executed in Privileged modes.
 128:Drivers/CMSIS/Core/Include/cmsis_gcc.h ****  */
ARM GAS  C:\Users\Teodor\AppData\Local\Temp\ccsgjqo4.s 			page 5


 129:Drivers/CMSIS/Core/Include/cmsis_gcc.h **** __STATIC_FORCEINLINE void __enable_irq(void)
 130:Drivers/CMSIS/Core/Include/cmsis_gcc.h **** {
 131:Drivers/CMSIS/Core/Include/cmsis_gcc.h ****   __ASM volatile ("cpsie i" : : : "memory");
 132:Drivers/CMSIS/Core/Include/cmsis_gcc.h **** }
 133:Drivers/CMSIS/Core/Include/cmsis_gcc.h **** 
 134:Drivers/CMSIS/Core/Include/cmsis_gcc.h **** 
 135:Drivers/CMSIS/Core/Include/cmsis_gcc.h **** /**
 136:Drivers/CMSIS/Core/Include/cmsis_gcc.h ****   \brief   Disable IRQ Interrupts
 137:Drivers/CMSIS/Core/Include/cmsis_gcc.h ****   \details Disables IRQ interrupts by setting the I-bit in the CPSR.
 138:Drivers/CMSIS/Core/Include/cmsis_gcc.h ****            Can only be executed in Privileged modes.
 139:Drivers/CMSIS/Core/Include/cmsis_gcc.h ****  */
 140:Drivers/CMSIS/Core/Include/cmsis_gcc.h **** __STATIC_FORCEINLINE void __disable_irq(void)
  84              		.loc 2 140 27 view .LVU10
  85              	.LBB17:
 141:Drivers/CMSIS/Core/Include/cmsis_gcc.h **** {
 142:Drivers/CMSIS/Core/Include/cmsis_gcc.h ****   __ASM volatile ("cpsid i" : : : "memory");
  86              		.loc 2 142 3 view .LVU11
  87              		.syntax unified
  88              	@ 142 "Drivers/CMSIS/Core/Include/cmsis_gcc.h" 1
  89 0002 72B6     		cpsid i
  90              	@ 0 "" 2
  91              		.thumb
  92              		.syntax unified
  93              	.LBE17:
  94              	.LBE16:
  21:nnRtos/src/queues.c **** 	  if(MB_hasdata){
  95              		.loc 1 21 4 view .LVU12
  96              		.loc 1 21 7 is_stmt 0 view .LVU13
  97 0004 074B     		ldr	r3, .L9
  98 0006 1B78     		ldrb	r3, [r3]	@ zero_extendqisi2
  99              		.loc 1 21 6 view .LVU14
 100 0008 0BB1     		cbz	r3, .L6
  22:nnRtos/src/queues.c **** 		   __enable_irq();
 101              		.loc 1 22 6 is_stmt 1 view .LVU15
 102              	.LBB18:
 103              	.LBI18:
 129:Drivers/CMSIS/Core/Include/cmsis_gcc.h **** {
 104              		.loc 2 129 27 view .LVU16
 105              	.LBB19:
 131:Drivers/CMSIS/Core/Include/cmsis_gcc.h **** }
 106              		.loc 2 131 3 view .LVU17
 107              		.syntax unified
 108              	@ 131 "Drivers/CMSIS/Core/Include/cmsis_gcc.h" 1
 109 000a 62B6     		cpsie i
 110              	@ 0 "" 2
 111              		.thumb
 112              		.syntax unified
 113              	.LBE19:
 114              	.LBE18:
  23:nnRtos/src/queues.c **** 			return;
 115              		.loc 1 23 4 view .LVU18
 116              	.LVL2:
 117              	.L5:
  24:nnRtos/src/queues.c **** 		}
  25:nnRtos/src/queues.c **** 	MB_Data  = data;
  26:nnRtos/src/queues.c **** 	MB_hasdata = 1;
  27:nnRtos/src/queues.c **** 	__enable_irq();
ARM GAS  C:\Users\Teodor\AppData\Local\Temp\ccsgjqo4.s 			page 6


  28:nnRtos/src/queues.c **** 	nnOsSignalSet((int *)&MB_Sem);	
  29:nnRtos/src/queues.c **** 		
  30:nnRtos/src/queues.c **** }
 118              		.loc 1 30 1 is_stmt 0 view .LVU19
 119 000c 08BD     		pop	{r3, pc}
 120              	.LVL3:
 121              	.L6:
  25:nnRtos/src/queues.c **** 	MB_hasdata = 1;
 122              		.loc 1 25 2 is_stmt 1 view .LVU20
  25:nnRtos/src/queues.c **** 	MB_hasdata = 1;
 123              		.loc 1 25 11 is_stmt 0 view .LVU21
 124 000e 064B     		ldr	r3, .L9+4
 125 0010 1860     		str	r0, [r3]
  26:nnRtos/src/queues.c **** 	__enable_irq();
 126              		.loc 1 26 2 is_stmt 1 view .LVU22
  26:nnRtos/src/queues.c **** 	__enable_irq();
 127              		.loc 1 26 13 is_stmt 0 view .LVU23
 128 0012 044B     		ldr	r3, .L9
 129 0014 0122     		movs	r2, #1
 130 0016 1A70     		strb	r2, [r3]
  27:nnRtos/src/queues.c **** 	nnOsSignalSet((int *)&MB_Sem);	
 131              		.loc 1 27 2 is_stmt 1 view .LVU24
 132              	.LBB20:
 133              	.LBI20:
 129:Drivers/CMSIS/Core/Include/cmsis_gcc.h **** {
 134              		.loc 2 129 27 view .LVU25
 135              	.LBB21:
 131:Drivers/CMSIS/Core/Include/cmsis_gcc.h **** }
 136              		.loc 2 131 3 view .LVU26
 137              		.syntax unified
 138              	@ 131 "Drivers/CMSIS/Core/Include/cmsis_gcc.h" 1
 139 0018 62B6     		cpsie i
 140              	@ 0 "" 2
 141              		.thumb
 142              		.syntax unified
 143              	.LBE21:
 144              	.LBE20:
  28:nnRtos/src/queues.c **** 		
 145              		.loc 1 28 2 view .LVU27
 146 001a 0448     		ldr	r0, .L9+8
 147              	.LVL4:
  28:nnRtos/src/queues.c **** 		
 148              		.loc 1 28 2 is_stmt 0 view .LVU28
 149 001c FFF7FEFF 		bl	nnOsSignalSet
 150              	.LVL5:
  28:nnRtos/src/queues.c **** 		
 151              		.loc 1 28 2 view .LVU29
 152 0020 F4E7     		b	.L5
 153              	.L10:
 154 0022 00BF     		.align	2
 155              	.L9:
 156 0024 00000000 		.word	.LANCHOR0
 157 0028 00000000 		.word	.LANCHOR1
 158 002c 00000000 		.word	.LANCHOR2
 159              		.cfi_endproc
 160              	.LFE66:
 162              		.section	.text.nnOsMailboxRecv,"ax",%progbits
ARM GAS  C:\Users\Teodor\AppData\Local\Temp\ccsgjqo4.s 			page 7


 163              		.align	1
 164              		.global	nnOsMailboxRecv
 165              		.syntax unified
 166              		.thumb
 167              		.thumb_func
 169              	nnOsMailboxRecv:
 170              	.LFB67:
  31:nnRtos/src/queues.c **** 
  32:nnRtos/src/queues.c **** 
  33:nnRtos/src/queues.c **** uint32_t nnOsMailboxRecv(void){
 171              		.loc 1 33 31 is_stmt 1 view -0
 172              		.cfi_startproc
 173              		@ args = 0, pretend = 0, frame = 0
 174              		@ frame_needed = 0, uses_anonymous_args = 0
 175 0000 08B5     		push	{r3, lr}
 176              	.LCFI2:
 177              		.cfi_def_cfa_offset 8
 178              		.cfi_offset 3, -8
 179              		.cfi_offset 14, -4
  34:nnRtos/src/queues.c **** 
  35:nnRtos/src/queues.c **** 	 nnOsSignalWait(&MB_Sem);
 180              		.loc 1 35 3 view .LVU31
 181 0002 0548     		ldr	r0, .L13
 182 0004 FFF7FEFF 		bl	nnOsSignalWait
 183              	.LVL6:
  36:nnRtos/src/queues.c **** 	 uint32_t data;
 184              		.loc 1 36 3 view .LVU32
  37:nnRtos/src/queues.c ****    __disable_irq();
 185              		.loc 1 37 4 view .LVU33
 186              	.LBB22:
 187              	.LBI22:
 140:Drivers/CMSIS/Core/Include/cmsis_gcc.h **** {
 188              		.loc 2 140 27 view .LVU34
 189              	.LBB23:
 190              		.loc 2 142 3 view .LVU35
 191              		.syntax unified
 192              	@ 142 "Drivers/CMSIS/Core/Include/cmsis_gcc.h" 1
 193 0008 72B6     		cpsid i
 194              	@ 0 "" 2
 195              		.thumb
 196              		.syntax unified
 197              	.LBE23:
 198              	.LBE22:
  38:nnRtos/src/queues.c **** 	 data = MB_Data;
 199              		.loc 1 38 3 view .LVU36
 200              		.loc 1 38 8 is_stmt 0 view .LVU37
 201 000a 044B     		ldr	r3, .L13+4
 202 000c 1868     		ldr	r0, [r3]
 203              	.LVL7:
  39:nnRtos/src/queues.c **** 	 MB_hasdata = 0;
 204              		.loc 1 39 3 is_stmt 1 view .LVU38
 205              		.loc 1 39 14 is_stmt 0 view .LVU39
 206 000e 044B     		ldr	r3, .L13+8
 207 0010 0022     		movs	r2, #0
 208 0012 1A70     		strb	r2, [r3]
  40:nnRtos/src/queues.c **** 	__enable_irq();
 209              		.loc 1 40 2 is_stmt 1 view .LVU40
ARM GAS  C:\Users\Teodor\AppData\Local\Temp\ccsgjqo4.s 			page 8


 210              	.LBB24:
 211              	.LBI24:
 129:Drivers/CMSIS/Core/Include/cmsis_gcc.h **** {
 212              		.loc 2 129 27 view .LVU41
 213              	.LBB25:
 131:Drivers/CMSIS/Core/Include/cmsis_gcc.h **** }
 214              		.loc 2 131 3 view .LVU42
 215              		.syntax unified
 216              	@ 131 "Drivers/CMSIS/Core/Include/cmsis_gcc.h" 1
 217 0014 62B6     		cpsie i
 218              	@ 0 "" 2
 219              		.thumb
 220              		.syntax unified
 221              	.LBE25:
 222              	.LBE24:
  41:nnRtos/src/queues.c **** 	
  42:nnRtos/src/queues.c **** 	return data;
 223              		.loc 1 42 2 view .LVU43
  43:nnRtos/src/queues.c **** }
 224              		.loc 1 43 1 is_stmt 0 view .LVU44
 225 0016 08BD     		pop	{r3, pc}
 226              	.L14:
 227              		.align	2
 228              	.L13:
 229 0018 00000000 		.word	.LANCHOR2
 230 001c 00000000 		.word	.LANCHOR1
 231 0020 00000000 		.word	.LANCHOR0
 232              		.cfi_endproc
 233              	.LFE67:
 235              		.section	.text.nnOsFifoInit,"ax",%progbits
 236              		.align	1
 237              		.global	nnOsFifoInit
 238              		.syntax unified
 239              		.thumb
 240              		.thumb_func
 242              	nnOsFifoInit:
 243              	.LFB68:
  44:nnRtos/src/queues.c **** 
  45:nnRtos/src/queues.c **** 
  46:nnRtos/src/queues.c **** //TODO: write useable functions for queues ... e.g. forwarding the address of a queue and many more
  47:nnRtos/src/queues.c **** uint32_t PutI;
  48:nnRtos/src/queues.c **** uint32_t GetI;
  49:nnRtos/src/queues.c **** uint32_t OS_Fifo[FIFO_SIZE];
  50:nnRtos/src/queues.c **** int32_t  current_fifo_size;
  51:nnRtos/src/queues.c **** uint32_t lost_data;
  52:nnRtos/src/queues.c **** 
  53:nnRtos/src/queues.c **** 
  54:nnRtos/src/queues.c **** void nnOsFifoInit(void){
 244              		.loc 1 54 24 is_stmt 1 view -0
 245              		.cfi_startproc
 246              		@ args = 0, pretend = 0, frame = 0
 247              		@ frame_needed = 0, uses_anonymous_args = 0
 248 0000 10B5     		push	{r4, lr}
 249              	.LCFI3:
 250              		.cfi_def_cfa_offset 8
 251              		.cfi_offset 4, -8
 252              		.cfi_offset 14, -4
ARM GAS  C:\Users\Teodor\AppData\Local\Temp\ccsgjqo4.s 			page 9


  55:nnRtos/src/queues.c **** 	PutI =0;
 253              		.loc 1 55 2 view .LVU46
 254              		.loc 1 55 7 is_stmt 0 view .LVU47
 255 0002 0024     		movs	r4, #0
 256 0004 054B     		ldr	r3, .L17
 257 0006 1C60     		str	r4, [r3]
  56:nnRtos/src/queues.c **** 	GetI =0;
 258              		.loc 1 56 2 is_stmt 1 view .LVU48
 259              		.loc 1 56 7 is_stmt 0 view .LVU49
 260 0008 054B     		ldr	r3, .L17+4
 261 000a 1C60     		str	r4, [r3]
  57:nnRtos/src/queues.c **** 	nnOsSemaphoreInit(&current_fifo_size,0);
 262              		.loc 1 57 2 is_stmt 1 view .LVU50
 263 000c 2146     		mov	r1, r4
 264 000e 0548     		ldr	r0, .L17+8
 265 0010 FFF7FEFF 		bl	nnOsSemaphoreInit
 266              	.LVL8:
  58:nnRtos/src/queues.c **** 	lost_data =0;
 267              		.loc 1 58 2 view .LVU51
 268              		.loc 1 58 12 is_stmt 0 view .LVU52
 269 0014 044B     		ldr	r3, .L17+12
 270 0016 1C60     		str	r4, [r3]
  59:nnRtos/src/queues.c **** }
 271              		.loc 1 59 1 view .LVU53
 272 0018 10BD     		pop	{r4, pc}
 273              	.L18:
 274 001a 00BF     		.align	2
 275              	.L17:
 276 001c 00000000 		.word	.LANCHOR3
 277 0020 00000000 		.word	.LANCHOR4
 278 0024 00000000 		.word	.LANCHOR5
 279 0028 00000000 		.word	.LANCHOR6
 280              		.cfi_endproc
 281              	.LFE68:
 283              		.section	.text.nnOsFifoPut,"ax",%progbits
 284              		.align	1
 285              		.global	nnOsFifoPut
 286              		.syntax unified
 287              		.thumb
 288              		.thumb_func
 290              	nnOsFifoPut:
 291              	.LVL9:
 292              	.LFB69:
  60:nnRtos/src/queues.c **** 
  61:nnRtos/src/queues.c **** 
  62:nnRtos/src/queues.c **** int8_t nnOsFifoPut(uint32_t data){
 293              		.loc 1 62 34 is_stmt 1 view -0
 294              		.cfi_startproc
 295              		@ args = 0, pretend = 0, frame = 0
 296              		@ frame_needed = 0, uses_anonymous_args = 0
 297              		.loc 1 62 34 is_stmt 0 view .LVU55
 298 0000 08B5     		push	{r3, lr}
 299              	.LCFI4:
 300              		.cfi_def_cfa_offset 8
 301              		.cfi_offset 3, -8
 302              		.cfi_offset 14, -4
  63:nnRtos/src/queues.c **** 	
ARM GAS  C:\Users\Teodor\AppData\Local\Temp\ccsgjqo4.s 			page 10


  64:nnRtos/src/queues.c ****   if(current_fifo_size ==  FIFO_SIZE){
 303              		.loc 1 64 3 is_stmt 1 view .LVU56
 304              		.loc 1 64 24 is_stmt 0 view .LVU57
 305 0002 0F4B     		ldr	r3, .L24
 306 0004 1B68     		ldr	r3, [r3]
 307              		.loc 1 64 5 view .LVU58
 308 0006 0F2B     		cmp	r3, #15
 309 0008 12D0     		beq	.L23
  65:nnRtos/src/queues.c **** 	  lost_data++;
  66:nnRtos/src/queues.c **** 		return -1;
  67:nnRtos/src/queues.c **** 	}
  68:nnRtos/src/queues.c **** 	OS_Fifo[PutI] = data;
 310              		.loc 1 68 2 is_stmt 1 view .LVU59
 311              		.loc 1 68 9 is_stmt 0 view .LVU60
 312 000a 0E49     		ldr	r1, .L24+4
 313 000c 0A68     		ldr	r2, [r1]
 314              		.loc 1 68 16 view .LVU61
 315 000e 0E4B     		ldr	r3, .L24+8
 316 0010 43F82200 		str	r0, [r3, r2, lsl #2]
  69:nnRtos/src/queues.c **** 	PutI = (PutI+1)% FIFO_SIZE;
 317              		.loc 1 69 2 is_stmt 1 view .LVU62
 318              		.loc 1 69 14 is_stmt 0 view .LVU63
 319 0014 0132     		adds	r2, r2, #1
 320              		.loc 1 69 17 view .LVU64
 321 0016 0D4B     		ldr	r3, .L24+12
 322 0018 A3FB0203 		umull	r0, r3, r3, r2
 323              	.LVL10:
 324              		.loc 1 69 17 view .LVU65
 325 001c DB08     		lsrs	r3, r3, #3
 326 001e C3EB0313 		rsb	r3, r3, r3, lsl #4
 327 0022 D31A     		subs	r3, r2, r3
 328              		.loc 1 69 7 view .LVU66
 329 0024 0B60     		str	r3, [r1]
 330              	.LVL11:
  70:nnRtos/src/queues.c **** 	nnOsSignalSet((int *)&current_fifo_size);
 331              		.loc 1 70 2 is_stmt 1 view .LVU67
 332 0026 0648     		ldr	r0, .L24
 333 0028 FFF7FEFF 		bl	nnOsSignalSet
 334              	.LVL12:
  71:nnRtos/src/queues.c **** 	
  72:nnRtos/src/queues.c **** 	return 1;
 335              		.loc 1 72 2 view .LVU68
 336              		.loc 1 72 9 is_stmt 0 view .LVU69
 337 002c 0120     		movs	r0, #1
 338              	.L21:
  73:nnRtos/src/queues.c **** }
 339              		.loc 1 73 1 view .LVU70
 340 002e 08BD     		pop	{r3, pc}
 341              	.LVL13:
 342              	.L23:
  65:nnRtos/src/queues.c **** 		return -1;
 343              		.loc 1 65 4 is_stmt 1 view .LVU71
  65:nnRtos/src/queues.c **** 		return -1;
 344              		.loc 1 65 13 is_stmt 0 view .LVU72
 345 0030 074A     		ldr	r2, .L24+16
 346 0032 1368     		ldr	r3, [r2]
 347 0034 0133     		adds	r3, r3, #1
ARM GAS  C:\Users\Teodor\AppData\Local\Temp\ccsgjqo4.s 			page 11


 348 0036 1360     		str	r3, [r2]
  66:nnRtos/src/queues.c **** 	}
 349              		.loc 1 66 3 is_stmt 1 view .LVU73
  66:nnRtos/src/queues.c **** 	}
 350              		.loc 1 66 10 is_stmt 0 view .LVU74
 351 0038 4FF0FF30 		mov	r0, #-1
 352              	.LVL14:
  66:nnRtos/src/queues.c **** 	}
 353              		.loc 1 66 10 view .LVU75
 354 003c F7E7     		b	.L21
 355              	.L25:
 356 003e 00BF     		.align	2
 357              	.L24:
 358 0040 00000000 		.word	.LANCHOR5
 359 0044 00000000 		.word	.LANCHOR3
 360 0048 00000000 		.word	.LANCHOR7
 361 004c 89888888 		.word	-2004318071
 362 0050 00000000 		.word	.LANCHOR6
 363              		.cfi_endproc
 364              	.LFE69:
 366              		.section	.text.nnOsFifoGet,"ax",%progbits
 367              		.align	1
 368              		.global	nnOsFifoGet
 369              		.syntax unified
 370              		.thumb
 371              		.thumb_func
 373              	nnOsFifoGet:
 374              	.LFB70:
  74:nnRtos/src/queues.c ****  
  75:nnRtos/src/queues.c **** 
  76:nnRtos/src/queues.c **** uint32_t nnOsFifoGet(void){
 375              		.loc 1 76 27 is_stmt 1 view -0
 376              		.cfi_startproc
 377              		@ args = 0, pretend = 0, frame = 0
 378              		@ frame_needed = 0, uses_anonymous_args = 0
 379 0000 08B5     		push	{r3, lr}
 380              	.LCFI5:
 381              		.cfi_def_cfa_offset 8
 382              		.cfi_offset 3, -8
 383              		.cfi_offset 14, -4
  77:nnRtos/src/queues.c ****     uint32_t data;
 384              		.loc 1 77 5 view .LVU77
  78:nnRtos/src/queues.c **** 	nnOsSignalCooperativeWait(&current_fifo_size);
 385              		.loc 1 78 2 view .LVU78
 386 0002 0A48     		ldr	r0, .L28
 387 0004 FFF7FEFF 		bl	nnOsSignalCooperativeWait
 388              	.LVL15:
  79:nnRtos/src/queues.c ****   __disable_irq();
 389              		.loc 1 79 3 view .LVU79
 390              	.LBB26:
 391              	.LBI26:
 140:Drivers/CMSIS/Core/Include/cmsis_gcc.h **** {
 392              		.loc 2 140 27 view .LVU80
 393              	.LBB27:
 394              		.loc 2 142 3 view .LVU81
 395              		.syntax unified
 396              	@ 142 "Drivers/CMSIS/Core/Include/cmsis_gcc.h" 1
ARM GAS  C:\Users\Teodor\AppData\Local\Temp\ccsgjqo4.s 			page 12


 397 0008 72B6     		cpsid i
 398              	@ 0 "" 2
 399              		.thumb
 400              		.syntax unified
 401              	.LBE27:
 402              	.LBE26:
  80:nnRtos/src/queues.c ****   data  = OS_Fifo[GetI];
 403              		.loc 1 80 3 view .LVU82
 404              		.loc 1 80 18 is_stmt 0 view .LVU83
 405 000a 0949     		ldr	r1, .L28+4
 406 000c 0A68     		ldr	r2, [r1]
 407              		.loc 1 80 9 view .LVU84
 408 000e 094B     		ldr	r3, .L28+8
 409 0010 53F82200 		ldr	r0, [r3, r2, lsl #2]
 410              	.LVL16:
  81:nnRtos/src/queues.c ****   GetI =  (GetI+1)%FIFO_SIZE;
 411              		.loc 1 81 3 is_stmt 1 view .LVU85
 412              		.loc 1 81 16 is_stmt 0 view .LVU86
 413 0014 0132     		adds	r2, r2, #1
 414              		.loc 1 81 19 view .LVU87
 415 0016 084B     		ldr	r3, .L28+12
 416 0018 A3FB02C3 		umull	ip, r3, r3, r2
 417 001c DB08     		lsrs	r3, r3, #3
 418 001e C3EB0313 		rsb	r3, r3, r3, lsl #4
 419 0022 D31A     		subs	r3, r2, r3
 420              		.loc 1 81 8 view .LVU88
 421 0024 0B60     		str	r3, [r1]
  82:nnRtos/src/queues.c ****   __enable_irq();	
 422              		.loc 1 82 3 is_stmt 1 view .LVU89
 423              	.LBB28:
 424              	.LBI28:
 129:Drivers/CMSIS/Core/Include/cmsis_gcc.h **** {
 425              		.loc 2 129 27 view .LVU90
 426              	.LBB29:
 131:Drivers/CMSIS/Core/Include/cmsis_gcc.h **** }
 427              		.loc 2 131 3 view .LVU91
 428              		.syntax unified
 429              	@ 131 "Drivers/CMSIS/Core/Include/cmsis_gcc.h" 1
 430 0026 62B6     		cpsie i
 431              	@ 0 "" 2
 432              		.thumb
 433              		.syntax unified
 434              	.LBE29:
 435              	.LBE28:
  83:nnRtos/src/queues.c **** 	
  84:nnRtos/src/queues.c **** 	return data;
 436              		.loc 1 84 2 view .LVU92
  85:nnRtos/src/queues.c ****   
  86:nnRtos/src/queues.c **** 	
  87:nnRtos/src/queues.c **** }...
 437              		.loc 1 87 1 is_stmt 0 view .LVU93
 438 0028 08BD     		pop	{r3, pc}
 439              	.L29:
 440 002a 00BF     		.align	2
 441              	.L28:
 442 002c 00000000 		.word	.LANCHOR5
 443 0030 00000000 		.word	.LANCHOR4
ARM GAS  C:\Users\Teodor\AppData\Local\Temp\ccsgjqo4.s 			page 13


 444 0034 00000000 		.word	.LANCHOR7
 445 0038 89888888 		.word	-2004318071
 446              		.cfi_endproc
 447              	.LFE70:
 449              		.global	lost_data
 450              		.global	current_fifo_size
 451              		.global	OS_Fifo
 452              		.global	GetI
 453              		.global	PutI
 454              		.section	.bss.GetI,"aw",%nobits
 455              		.align	2
 456              		.set	.LANCHOR4,. + 0
 459              	GetI:
 460 0000 00000000 		.space	4
 461              		.section	.bss.MB_Data,"aw",%nobits
 462              		.align	2
 463              		.set	.LANCHOR1,. + 0
 466              	MB_Data:
 467 0000 00000000 		.space	4
 468              		.section	.bss.MB_Sem,"aw",%nobits
 469              		.align	2
 470              		.set	.LANCHOR2,. + 0
 473              	MB_Sem:
 474 0000 00000000 		.space	4
 475              		.section	.bss.MB_hasdata,"aw",%nobits
 476              		.set	.LANCHOR0,. + 0
 479              	MB_hasdata:
 480 0000 00       		.space	1
 481              		.section	.bss.OS_Fifo,"aw",%nobits
 482              		.align	2
 483              		.set	.LANCHOR7,. + 0
 486              	OS_Fifo:
 487 0000 00000000 		.space	60
 487      00000000 
 487      00000000 
 487      00000000 
 487      00000000 
 488              		.section	.bss.PutI,"aw",%nobits
 489              		.align	2
 490              		.set	.LANCHOR3,. + 0
 493              	PutI:
 494 0000 00000000 		.space	4
 495              		.section	.bss.current_fifo_size,"aw",%nobits
 496              		.align	2
 497              		.set	.LANCHOR5,. + 0
 500              	current_fifo_size:
 501 0000 00000000 		.space	4
 502              		.section	.bss.lost_data,"aw",%nobits
 503              		.align	2
 504              		.set	.LANCHOR6,. + 0
 507              	lost_data:
 508 0000 00000000 		.space	4
 509              		.text
 510              	.Letext0:
 511              		.file 3 "d:\\gnu_tools\\gnu arm embedded toolchain\\10 2021.10\\arm-none-eabi\\include\\machine\\_
 512              		.file 4 "d:\\gnu_tools\\gnu arm embedded toolchain\\10 2021.10\\arm-none-eabi\\include\\sys\\_stdi
 513              		.file 5 "nnRtos/inc/nnRTOS.h"
ARM GAS  C:\Users\Teodor\AppData\Local\Temp\ccsgjqo4.s 			page 14


ARM GAS  C:\Users\Teodor\AppData\Local\Temp\ccsgjqo4.s 			page 15

