ARM GAS  C:\Users\Teodor\AppData\Local\Temp\cceXtGvQ.s 			page 1


   1              		.cpu cortex-m3
   2              		.arch armv7-m
   3              		.fpu softvfp
   4              		.eabi_attribute 20, 1
   5              		.eabi_attribute 21, 1
   6              		.eabi_attribute 23, 3
   7              		.eabi_attribute 24, 1
   8              		.eabi_attribute 25, 1
   9              		.eabi_attribute 26, 1
  10              		.eabi_attribute 30, 1
  11              		.eabi_attribute 34, 1
  12              		.eabi_attribute 18, 4
  13              		.file	"semaphores.c"
  14              		.text
  15              	.Ltext0:
  16              		.cfi_sections	.debug_frame
  17              		.section	.text.nnOsSemaphoreInit,"ax",%progbits
  18              		.align	1
  19              		.global	nnOsSemaphoreInit
  20              		.syntax unified
  21              		.thumb
  22              		.thumb_func
  24              	nnOsSemaphoreInit:
  25              	.LVL0:
  26              	.LFB65:
  27              		.file 1 "nnRtos/src/semaphores.c"
   1:nnRtos/src/semaphores.c **** #include "nnRTOS.h"
   2:nnRtos/src/semaphores.c **** 
   3:nnRtos/src/semaphores.c **** 
   4:nnRtos/src/semaphores.c **** 
   5:nnRtos/src/semaphores.c **** void nnOsSemaphoreInit(int32_t *semaphore,int32_t value){
  28              		.loc 1 5 57 view -0
  29              		.cfi_startproc
  30              		@ args = 0, pretend = 0, frame = 0
  31              		@ frame_needed = 0, uses_anonymous_args = 0
  32              		@ link register save eliminated.
   6:nnRtos/src/semaphores.c **** 
   7:nnRtos/src/semaphores.c **** 	 *semaphore = value;
  33              		.loc 1 7 3 view .LVU1
  34              		.loc 1 7 14 is_stmt 0 view .LVU2
  35 0000 0160     		str	r1, [r0]
   8:nnRtos/src/semaphores.c **** 	
   9:nnRtos/src/semaphores.c **** }
  36              		.loc 1 9 1 view .LVU3
  37 0002 7047     		bx	lr
  38              		.cfi_endproc
  39              	.LFE65:
  41              		.section	.text.nnOsSignalSet,"ax",%progbits
  42              		.align	1
  43              		.global	nnOsSignalSet
  44              		.syntax unified
  45              		.thumb
  46              		.thumb_func
  48              	nnOsSignalSet:
  49              	.LVL1:
  50              	.LFB66:
  10:nnRtos/src/semaphores.c **** 
ARM GAS  C:\Users\Teodor\AppData\Local\Temp\cceXtGvQ.s 			page 2


  11:nnRtos/src/semaphores.c **** 
  12:nnRtos/src/semaphores.c **** void nnOsSignalSet(int *semaphore)
  13:nnRtos/src/semaphores.c **** {
  51              		.loc 1 13 1 is_stmt 1 view -0
  52              		.cfi_startproc
  53              		@ args = 0, pretend = 0, frame = 0
  54              		@ frame_needed = 0, uses_anonymous_args = 0
  55              		@ link register save eliminated.
  14:nnRtos/src/semaphores.c **** 	 nnENTRY_CRITCAL();
  56              		.loc 1 14 3 view .LVU5
  57              	.LBB24:
  58              	.LBI24:
  59              		.file 2 "Drivers/CMSIS/Core/Include/cmsis_gcc.h"
   1:Drivers/CMSIS/Core/Include/cmsis_gcc.h **** /**************************************************************************//**
   2:Drivers/CMSIS/Core/Include/cmsis_gcc.h ****  * @file     cmsis_gcc.h
   3:Drivers/CMSIS/Core/Include/cmsis_gcc.h ****  * @brief    CMSIS compiler GCC header file
   4:Drivers/CMSIS/Core/Include/cmsis_gcc.h ****  * @version  V5.0.4
   5:Drivers/CMSIS/Core/Include/cmsis_gcc.h ****  * @date     09. April 2018
   6:Drivers/CMSIS/Core/Include/cmsis_gcc.h ****  ******************************************************************************/
   7:Drivers/CMSIS/Core/Include/cmsis_gcc.h **** /*
   8:Drivers/CMSIS/Core/Include/cmsis_gcc.h ****  * Copyright (c) 2009-2018 Arm Limited. All rights reserved.
   9:Drivers/CMSIS/Core/Include/cmsis_gcc.h ****  *
  10:Drivers/CMSIS/Core/Include/cmsis_gcc.h ****  * SPDX-License-Identifier: Apache-2.0
  11:Drivers/CMSIS/Core/Include/cmsis_gcc.h ****  *
  12:Drivers/CMSIS/Core/Include/cmsis_gcc.h ****  * Licensed under the Apache License, Version 2.0 (the License); you may
  13:Drivers/CMSIS/Core/Include/cmsis_gcc.h ****  * not use this file except in compliance with the License.
  14:Drivers/CMSIS/Core/Include/cmsis_gcc.h ****  * You may obtain a copy of the License at
  15:Drivers/CMSIS/Core/Include/cmsis_gcc.h ****  *
  16:Drivers/CMSIS/Core/Include/cmsis_gcc.h ****  * www.apache.org/licenses/LICENSE-2.0
  17:Drivers/CMSIS/Core/Include/cmsis_gcc.h ****  *
  18:Drivers/CMSIS/Core/Include/cmsis_gcc.h ****  * Unless required by applicable law or agreed to in writing, software
  19:Drivers/CMSIS/Core/Include/cmsis_gcc.h ****  * distributed under the License is distributed on an AS IS BASIS, WITHOUT
  20:Drivers/CMSIS/Core/Include/cmsis_gcc.h ****  * WARRANTIES OR CONDITIONS OF ANY KIND, either express or implied.
  21:Drivers/CMSIS/Core/Include/cmsis_gcc.h ****  * See the License for the specific language governing permissions and
  22:Drivers/CMSIS/Core/Include/cmsis_gcc.h ****  * limitations under the License.
  23:Drivers/CMSIS/Core/Include/cmsis_gcc.h ****  */
  24:Drivers/CMSIS/Core/Include/cmsis_gcc.h **** 
  25:Drivers/CMSIS/Core/Include/cmsis_gcc.h **** #ifndef __CMSIS_GCC_H
  26:Drivers/CMSIS/Core/Include/cmsis_gcc.h **** #define __CMSIS_GCC_H
  27:Drivers/CMSIS/Core/Include/cmsis_gcc.h **** 
  28:Drivers/CMSIS/Core/Include/cmsis_gcc.h **** /* ignore some GCC warnings */
  29:Drivers/CMSIS/Core/Include/cmsis_gcc.h **** #pragma GCC diagnostic push
  30:Drivers/CMSIS/Core/Include/cmsis_gcc.h **** #pragma GCC diagnostic ignored "-Wsign-conversion"
  31:Drivers/CMSIS/Core/Include/cmsis_gcc.h **** #pragma GCC diagnostic ignored "-Wconversion"
  32:Drivers/CMSIS/Core/Include/cmsis_gcc.h **** #pragma GCC diagnostic ignored "-Wunused-parameter"
  33:Drivers/CMSIS/Core/Include/cmsis_gcc.h **** 
  34:Drivers/CMSIS/Core/Include/cmsis_gcc.h **** /* Fallback for __has_builtin */
  35:Drivers/CMSIS/Core/Include/cmsis_gcc.h **** #ifndef __has_builtin
  36:Drivers/CMSIS/Core/Include/cmsis_gcc.h ****   #define __has_builtin(x) (0)
  37:Drivers/CMSIS/Core/Include/cmsis_gcc.h **** #endif
  38:Drivers/CMSIS/Core/Include/cmsis_gcc.h **** 
  39:Drivers/CMSIS/Core/Include/cmsis_gcc.h **** /* CMSIS compiler specific defines */
  40:Drivers/CMSIS/Core/Include/cmsis_gcc.h **** #ifndef   __ASM
  41:Drivers/CMSIS/Core/Include/cmsis_gcc.h ****   #define __ASM                                  __asm
  42:Drivers/CMSIS/Core/Include/cmsis_gcc.h **** #endif
  43:Drivers/CMSIS/Core/Include/cmsis_gcc.h **** #ifndef   __INLINE
  44:Drivers/CMSIS/Core/Include/cmsis_gcc.h ****   #define __INLINE                               inline
ARM GAS  C:\Users\Teodor\AppData\Local\Temp\cceXtGvQ.s 			page 3


  45:Drivers/CMSIS/Core/Include/cmsis_gcc.h **** #endif
  46:Drivers/CMSIS/Core/Include/cmsis_gcc.h **** #ifndef   __STATIC_INLINE
  47:Drivers/CMSIS/Core/Include/cmsis_gcc.h ****   #define __STATIC_INLINE                        static inline
  48:Drivers/CMSIS/Core/Include/cmsis_gcc.h **** #endif
  49:Drivers/CMSIS/Core/Include/cmsis_gcc.h **** #ifndef   __STATIC_FORCEINLINE                 
  50:Drivers/CMSIS/Core/Include/cmsis_gcc.h ****   #define __STATIC_FORCEINLINE                   __attribute__((always_inline)) static inline
  51:Drivers/CMSIS/Core/Include/cmsis_gcc.h **** #endif                                           
  52:Drivers/CMSIS/Core/Include/cmsis_gcc.h **** #ifndef   __NO_RETURN
  53:Drivers/CMSIS/Core/Include/cmsis_gcc.h ****   #define __NO_RETURN                            __attribute__((__noreturn__))
  54:Drivers/CMSIS/Core/Include/cmsis_gcc.h **** #endif
  55:Drivers/CMSIS/Core/Include/cmsis_gcc.h **** #ifndef   __USED
  56:Drivers/CMSIS/Core/Include/cmsis_gcc.h ****   #define __USED                                 __attribute__((used))
  57:Drivers/CMSIS/Core/Include/cmsis_gcc.h **** #endif
  58:Drivers/CMSIS/Core/Include/cmsis_gcc.h **** #ifndef   __WEAK
  59:Drivers/CMSIS/Core/Include/cmsis_gcc.h ****   #define __WEAK                                 __attribute__((weak))
  60:Drivers/CMSIS/Core/Include/cmsis_gcc.h **** #endif
  61:Drivers/CMSIS/Core/Include/cmsis_gcc.h **** #ifndef   __PACKED
  62:Drivers/CMSIS/Core/Include/cmsis_gcc.h ****   #define __PACKED                               __attribute__((packed, aligned(1)))
  63:Drivers/CMSIS/Core/Include/cmsis_gcc.h **** #endif
  64:Drivers/CMSIS/Core/Include/cmsis_gcc.h **** #ifndef   __PACKED_STRUCT
  65:Drivers/CMSIS/Core/Include/cmsis_gcc.h ****   #define __PACKED_STRUCT                        struct __attribute__((packed, aligned(1)))
  66:Drivers/CMSIS/Core/Include/cmsis_gcc.h **** #endif
  67:Drivers/CMSIS/Core/Include/cmsis_gcc.h **** #ifndef   __PACKED_UNION
  68:Drivers/CMSIS/Core/Include/cmsis_gcc.h ****   #define __PACKED_UNION                         union __attribute__((packed, aligned(1)))
  69:Drivers/CMSIS/Core/Include/cmsis_gcc.h **** #endif
  70:Drivers/CMSIS/Core/Include/cmsis_gcc.h **** #ifndef   __UNALIGNED_UINT32        /* deprecated */
  71:Drivers/CMSIS/Core/Include/cmsis_gcc.h ****   #pragma GCC diagnostic push
  72:Drivers/CMSIS/Core/Include/cmsis_gcc.h ****   #pragma GCC diagnostic ignored "-Wpacked"
  73:Drivers/CMSIS/Core/Include/cmsis_gcc.h ****   #pragma GCC diagnostic ignored "-Wattributes"
  74:Drivers/CMSIS/Core/Include/cmsis_gcc.h ****   struct __attribute__((packed)) T_UINT32 { uint32_t v; };
  75:Drivers/CMSIS/Core/Include/cmsis_gcc.h ****   #pragma GCC diagnostic pop
  76:Drivers/CMSIS/Core/Include/cmsis_gcc.h ****   #define __UNALIGNED_UINT32(x)                  (((struct T_UINT32 *)(x))->v)
  77:Drivers/CMSIS/Core/Include/cmsis_gcc.h **** #endif
  78:Drivers/CMSIS/Core/Include/cmsis_gcc.h **** #ifndef   __UNALIGNED_UINT16_WRITE
  79:Drivers/CMSIS/Core/Include/cmsis_gcc.h ****   #pragma GCC diagnostic push
  80:Drivers/CMSIS/Core/Include/cmsis_gcc.h ****   #pragma GCC diagnostic ignored "-Wpacked"
  81:Drivers/CMSIS/Core/Include/cmsis_gcc.h ****   #pragma GCC diagnostic ignored "-Wattributes"
  82:Drivers/CMSIS/Core/Include/cmsis_gcc.h ****   __PACKED_STRUCT T_UINT16_WRITE { uint16_t v; };
  83:Drivers/CMSIS/Core/Include/cmsis_gcc.h ****   #pragma GCC diagnostic pop
  84:Drivers/CMSIS/Core/Include/cmsis_gcc.h ****   #define __UNALIGNED_UINT16_WRITE(addr, val)    (void)((((struct T_UINT16_WRITE *)(void *)(addr))-
  85:Drivers/CMSIS/Core/Include/cmsis_gcc.h **** #endif
  86:Drivers/CMSIS/Core/Include/cmsis_gcc.h **** #ifndef   __UNALIGNED_UINT16_READ
  87:Drivers/CMSIS/Core/Include/cmsis_gcc.h ****   #pragma GCC diagnostic push
  88:Drivers/CMSIS/Core/Include/cmsis_gcc.h ****   #pragma GCC diagnostic ignored "-Wpacked"
  89:Drivers/CMSIS/Core/Include/cmsis_gcc.h ****   #pragma GCC diagnostic ignored "-Wattributes"
  90:Drivers/CMSIS/Core/Include/cmsis_gcc.h ****   __PACKED_STRUCT T_UINT16_READ { uint16_t v; };
  91:Drivers/CMSIS/Core/Include/cmsis_gcc.h ****   #pragma GCC diagnostic pop
  92:Drivers/CMSIS/Core/Include/cmsis_gcc.h ****   #define __UNALIGNED_UINT16_READ(addr)          (((const struct T_UINT16_READ *)(const void *)(add
  93:Drivers/CMSIS/Core/Include/cmsis_gcc.h **** #endif
  94:Drivers/CMSIS/Core/Include/cmsis_gcc.h **** #ifndef   __UNALIGNED_UINT32_WRITE
  95:Drivers/CMSIS/Core/Include/cmsis_gcc.h ****   #pragma GCC diagnostic push
  96:Drivers/CMSIS/Core/Include/cmsis_gcc.h ****   #pragma GCC diagnostic ignored "-Wpacked"
  97:Drivers/CMSIS/Core/Include/cmsis_gcc.h ****   #pragma GCC diagnostic ignored "-Wattributes"
  98:Drivers/CMSIS/Core/Include/cmsis_gcc.h ****   __PACKED_STRUCT T_UINT32_WRITE { uint32_t v; };
  99:Drivers/CMSIS/Core/Include/cmsis_gcc.h ****   #pragma GCC diagnostic pop
 100:Drivers/CMSIS/Core/Include/cmsis_gcc.h ****   #define __UNALIGNED_UINT32_WRITE(addr, val)    (void)((((struct T_UINT32_WRITE *)(void *)(addr))-
 101:Drivers/CMSIS/Core/Include/cmsis_gcc.h **** #endif
ARM GAS  C:\Users\Teodor\AppData\Local\Temp\cceXtGvQ.s 			page 4


 102:Drivers/CMSIS/Core/Include/cmsis_gcc.h **** #ifndef   __UNALIGNED_UINT32_READ
 103:Drivers/CMSIS/Core/Include/cmsis_gcc.h ****   #pragma GCC diagnostic push
 104:Drivers/CMSIS/Core/Include/cmsis_gcc.h ****   #pragma GCC diagnostic ignored "-Wpacked"
 105:Drivers/CMSIS/Core/Include/cmsis_gcc.h ****   #pragma GCC diagnostic ignored "-Wattributes"
 106:Drivers/CMSIS/Core/Include/cmsis_gcc.h ****   __PACKED_STRUCT T_UINT32_READ { uint32_t v; };
 107:Drivers/CMSIS/Core/Include/cmsis_gcc.h ****   #pragma GCC diagnostic pop
 108:Drivers/CMSIS/Core/Include/cmsis_gcc.h ****   #define __UNALIGNED_UINT32_READ(addr)          (((const struct T_UINT32_READ *)(const void *)(add
 109:Drivers/CMSIS/Core/Include/cmsis_gcc.h **** #endif
 110:Drivers/CMSIS/Core/Include/cmsis_gcc.h **** #ifndef   __ALIGNED
 111:Drivers/CMSIS/Core/Include/cmsis_gcc.h ****   #define __ALIGNED(x)                           __attribute__((aligned(x)))
 112:Drivers/CMSIS/Core/Include/cmsis_gcc.h **** #endif
 113:Drivers/CMSIS/Core/Include/cmsis_gcc.h **** #ifndef   __RESTRICT
 114:Drivers/CMSIS/Core/Include/cmsis_gcc.h ****   #define __RESTRICT                             __restrict
 115:Drivers/CMSIS/Core/Include/cmsis_gcc.h **** #endif
 116:Drivers/CMSIS/Core/Include/cmsis_gcc.h **** 
 117:Drivers/CMSIS/Core/Include/cmsis_gcc.h **** 
 118:Drivers/CMSIS/Core/Include/cmsis_gcc.h **** /* ###########################  Core Function Access  ########################### */
 119:Drivers/CMSIS/Core/Include/cmsis_gcc.h **** /** \ingroup  CMSIS_Core_FunctionInterface
 120:Drivers/CMSIS/Core/Include/cmsis_gcc.h ****     \defgroup CMSIS_Core_RegAccFunctions CMSIS Core Register Access Functions
 121:Drivers/CMSIS/Core/Include/cmsis_gcc.h ****   @{
 122:Drivers/CMSIS/Core/Include/cmsis_gcc.h ****  */
 123:Drivers/CMSIS/Core/Include/cmsis_gcc.h **** 
 124:Drivers/CMSIS/Core/Include/cmsis_gcc.h **** /**
 125:Drivers/CMSIS/Core/Include/cmsis_gcc.h ****   \brief   Enable IRQ Interrupts
 126:Drivers/CMSIS/Core/Include/cmsis_gcc.h ****   \details Enables IRQ interrupts by clearing the I-bit in the CPSR.
 127:Drivers/CMSIS/Core/Include/cmsis_gcc.h ****            Can only be executed in Privileged modes.
 128:Drivers/CMSIS/Core/Include/cmsis_gcc.h ****  */
 129:Drivers/CMSIS/Core/Include/cmsis_gcc.h **** __STATIC_FORCEINLINE void __enable_irq(void)
 130:Drivers/CMSIS/Core/Include/cmsis_gcc.h **** {
 131:Drivers/CMSIS/Core/Include/cmsis_gcc.h ****   __ASM volatile ("cpsie i" : : : "memory");
 132:Drivers/CMSIS/Core/Include/cmsis_gcc.h **** }
 133:Drivers/CMSIS/Core/Include/cmsis_gcc.h **** 
 134:Drivers/CMSIS/Core/Include/cmsis_gcc.h **** 
 135:Drivers/CMSIS/Core/Include/cmsis_gcc.h **** /**
 136:Drivers/CMSIS/Core/Include/cmsis_gcc.h ****   \brief   Disable IRQ Interrupts
 137:Drivers/CMSIS/Core/Include/cmsis_gcc.h ****   \details Disables IRQ interrupts by setting the I-bit in the CPSR.
 138:Drivers/CMSIS/Core/Include/cmsis_gcc.h ****            Can only be executed in Privileged modes.
 139:Drivers/CMSIS/Core/Include/cmsis_gcc.h ****  */
 140:Drivers/CMSIS/Core/Include/cmsis_gcc.h **** __STATIC_FORCEINLINE void __disable_irq(void)
  60              		.loc 2 140 27 view .LVU6
  61              	.LBB25:
 141:Drivers/CMSIS/Core/Include/cmsis_gcc.h **** {
 142:Drivers/CMSIS/Core/Include/cmsis_gcc.h ****   __ASM volatile ("cpsid i" : : : "memory");
  62              		.loc 2 142 3 view .LVU7
  63              		.syntax unified
  64              	@ 142 "Drivers/CMSIS/Core/Include/cmsis_gcc.h" 1
  65 0000 72B6     		cpsid i
  66              	@ 0 "" 2
  67              		.thumb
  68              		.syntax unified
  69              	.LBE25:
  70              	.LBE24:
  15:nnRtos/src/semaphores.c **** 	  *semaphore +=1;
  71              		.loc 1 15 4 view .LVU8
  72              		.loc 1 15 15 is_stmt 0 view .LVU9
  73 0002 0368     		ldr	r3, [r0]
  74 0004 0133     		adds	r3, r3, #1
ARM GAS  C:\Users\Teodor\AppData\Local\Temp\cceXtGvQ.s 			page 5


  75 0006 0360     		str	r3, [r0]
  16:nnRtos/src/semaphores.c **** 	 nnLEAVE_CRITCAL();
  76              		.loc 1 16 3 is_stmt 1 view .LVU10
  77              	.LBB26:
  78              	.LBI26:
 129:Drivers/CMSIS/Core/Include/cmsis_gcc.h **** {
  79              		.loc 2 129 27 view .LVU11
  80              	.LBB27:
 131:Drivers/CMSIS/Core/Include/cmsis_gcc.h **** }
  81              		.loc 2 131 3 view .LVU12
  82              		.syntax unified
  83              	@ 131 "Drivers/CMSIS/Core/Include/cmsis_gcc.h" 1
  84 0008 62B6     		cpsie i
  85              	@ 0 "" 2
  86              		.thumb
  87              		.syntax unified
  88              	.LBE27:
  89              	.LBE26:
  17:nnRtos/src/semaphores.c **** }
  90              		.loc 1 17 1 is_stmt 0 view .LVU13
  91 000a 7047     		bx	lr
  92              		.cfi_endproc
  93              	.LFE66:
  95              		.section	.text.nnOsSignalWait,"ax",%progbits
  96              		.align	1
  97              		.global	nnOsSignalWait
  98              		.syntax unified
  99              		.thumb
 100              		.thumb_func
 102              	nnOsSignalWait:
 103              	.LVL2:
 104              	.LFB67:
  18:nnRtos/src/semaphores.c **** 
  19:nnRtos/src/semaphores.c **** void nnOsSignalWait(int32_t *semaphore)
  20:nnRtos/src/semaphores.c **** {
 105              		.loc 1 20 1 is_stmt 1 view -0
 106              		.cfi_startproc
 107              		@ args = 0, pretend = 0, frame = 0
 108              		@ frame_needed = 0, uses_anonymous_args = 0
 109              		@ link register save eliminated.
  21:nnRtos/src/semaphores.c **** 	nnENTRY_CRITCAL();
 110              		.loc 1 21 2 view .LVU15
 111              	.LBB28:
 112              	.LBI28:
 140:Drivers/CMSIS/Core/Include/cmsis_gcc.h **** {
 113              		.loc 2 140 27 view .LVU16
 114              	.LBB29:
 115              		.loc 2 142 3 view .LVU17
 116              		.syntax unified
 117              	@ 142 "Drivers/CMSIS/Core/Include/cmsis_gcc.h" 1
 118 0000 72B6     		cpsid i
 119              	@ 0 "" 2
 143:Drivers/CMSIS/Core/Include/cmsis_gcc.h **** }
 120              		.loc 2 143 1 is_stmt 0 view .LVU18
 121              		.thumb
 122              		.syntax unified
 123 0002 01E0     		b	.L4
ARM GAS  C:\Users\Teodor\AppData\Local\Temp\cceXtGvQ.s 			page 6


 124              	.L5:
 125              		.loc 2 143 1 view .LVU19
 126              	.LBE29:
 127              	.LBE28:
  22:nnRtos/src/semaphores.c **** 	
  23:nnRtos/src/semaphores.c **** 	while(*semaphore <=0)
  24:nnRtos/src/semaphores.c **** 	{
  25:nnRtos/src/semaphores.c **** 		nnENTRY_CRITCAL();
 128              		.loc 1 25 3 is_stmt 1 view .LVU20
 129              	.LBB30:
 130              	.LBI30:
 140:Drivers/CMSIS/Core/Include/cmsis_gcc.h **** {
 131              		.loc 2 140 27 view .LVU21
 132              	.LBB31:
 142:Drivers/CMSIS/Core/Include/cmsis_gcc.h **** }
 133              		.loc 2 142 3 view .LVU22
 134              		.syntax unified
 135              	@ 142 "Drivers/CMSIS/Core/Include/cmsis_gcc.h" 1
 136 0004 72B6     		cpsid i
 137              	@ 0 "" 2
 138              		.thumb
 139              		.syntax unified
 140              	.LBE31:
 141              	.LBE30:
  26:nnRtos/src/semaphores.c **** 		nnLEAVE_CRITCAL();
 142              		.loc 1 26 3 view .LVU23
 143              	.LBB32:
 144              	.LBI32:
 129:Drivers/CMSIS/Core/Include/cmsis_gcc.h **** {
 145              		.loc 2 129 27 view .LVU24
 146              	.LBB33:
 131:Drivers/CMSIS/Core/Include/cmsis_gcc.h **** }
 147              		.loc 2 131 3 view .LVU25
 148              		.syntax unified
 149              	@ 131 "Drivers/CMSIS/Core/Include/cmsis_gcc.h" 1
 150 0006 62B6     		cpsie i
 151              	@ 0 "" 2
 152              		.thumb
 153              		.syntax unified
 154              	.L4:
 131:Drivers/CMSIS/Core/Include/cmsis_gcc.h **** }
 155              		.loc 2 131 3 is_stmt 0 view .LVU26
 156              	.LBE33:
 157              	.LBE32:
  23:nnRtos/src/semaphores.c **** 	{
 158              		.loc 1 23 7 is_stmt 1 view .LVU27
  23:nnRtos/src/semaphores.c **** 	{
 159              		.loc 1 23 8 is_stmt 0 view .LVU28
 160 0008 0368     		ldr	r3, [r0]
  23:nnRtos/src/semaphores.c **** 	{
 161              		.loc 1 23 7 view .LVU29
 162 000a 002B     		cmp	r3, #0
 163 000c FADD     		ble	.L5
  27:nnRtos/src/semaphores.c **** 	}
  28:nnRtos/src/semaphores.c **** 
  29:nnRtos/src/semaphores.c **** 	 *semaphore -=1;
 164              		.loc 1 29 3 is_stmt 1 view .LVU30
ARM GAS  C:\Users\Teodor\AppData\Local\Temp\cceXtGvQ.s 			page 7


 165              		.loc 1 29 14 is_stmt 0 view .LVU31
 166 000e 013B     		subs	r3, r3, #1
 167 0010 0360     		str	r3, [r0]
  30:nnRtos/src/semaphores.c **** 	nnLEAVE_CRITCAL();
 168              		.loc 1 30 2 is_stmt 1 view .LVU32
 169              	.LBB34:
 170              	.LBI34:
 129:Drivers/CMSIS/Core/Include/cmsis_gcc.h **** {
 171              		.loc 2 129 27 view .LVU33
 172              	.LBB35:
 131:Drivers/CMSIS/Core/Include/cmsis_gcc.h **** }
 173              		.loc 2 131 3 view .LVU34
 174              		.syntax unified
 175              	@ 131 "Drivers/CMSIS/Core/Include/cmsis_gcc.h" 1
 176 0012 62B6     		cpsie i
 177              	@ 0 "" 2
 178              		.thumb
 179              		.syntax unified
 180              	.LBE35:
 181              	.LBE34:
  31:nnRtos/src/semaphores.c **** }
 182              		.loc 1 31 1 is_stmt 0 view .LVU35
 183 0014 7047     		bx	lr
 184              		.cfi_endproc
 185              	.LFE67:
 187              		.section	.text.nnOsSignalCooperativeWait,"ax",%progbits
 188              		.align	1
 189              		.global	nnOsSignalCooperativeWait
 190              		.syntax unified
 191              		.thumb
 192              		.thumb_func
 194              	nnOsSignalCooperativeWait:
 195              	.LVL3:
 196              	.LFB68:
  32:nnRtos/src/semaphores.c **** 
  33:nnRtos/src/semaphores.c **** void nnOsSignalCooperativeWait(int32_t *semaphore)
  34:nnRtos/src/semaphores.c **** {
 197              		.loc 1 34 1 is_stmt 1 view -0
 198              		.cfi_startproc
 199              		@ args = 0, pretend = 0, frame = 0
 200              		@ frame_needed = 0, uses_anonymous_args = 0
 201              		.loc 1 34 1 is_stmt 0 view .LVU37
 202 0000 10B5     		push	{r4, lr}
 203              	.LCFI0:
 204              		.cfi_def_cfa_offset 8
 205              		.cfi_offset 4, -8
 206              		.cfi_offset 14, -4
 207 0002 0446     		mov	r4, r0
  35:nnRtos/src/semaphores.c **** 	nnENTRY_CRITCAL();
 208              		.loc 1 35 2 is_stmt 1 view .LVU38
 209              	.LBB36:
 210              	.LBI36:
 140:Drivers/CMSIS/Core/Include/cmsis_gcc.h **** {
 211              		.loc 2 140 27 view .LVU39
 212              	.LBB37:
 142:Drivers/CMSIS/Core/Include/cmsis_gcc.h **** }
 213              		.loc 2 142 3 view .LVU40
ARM GAS  C:\Users\Teodor\AppData\Local\Temp\cceXtGvQ.s 			page 8


 214              		.syntax unified
 215              	@ 142 "Drivers/CMSIS/Core/Include/cmsis_gcc.h" 1
 216 0004 72B6     		cpsid i
 217              	@ 0 "" 2
 218              		.loc 2 143 1 is_stmt 0 view .LVU41
 219              		.thumb
 220              		.syntax unified
 221 0006 03E0     		b	.L7
 222              	.LVL4:
 223              	.L8:
 224              		.loc 2 143 1 view .LVU42
 225              	.LBE37:
 226              	.LBE36:
  36:nnRtos/src/semaphores.c **** 	
  37:nnRtos/src/semaphores.c **** 	while(*semaphore<=0){
  38:nnRtos/src/semaphores.c **** 		nnENTRY_CRITCAL();
 227              		.loc 1 38 3 is_stmt 1 view .LVU43
 228              	.LBB38:
 229              	.LBI38:
 140:Drivers/CMSIS/Core/Include/cmsis_gcc.h **** {
 230              		.loc 2 140 27 view .LVU44
 231              	.LBB39:
 142:Drivers/CMSIS/Core/Include/cmsis_gcc.h **** }
 232              		.loc 2 142 3 view .LVU45
 233              		.syntax unified
 234              	@ 142 "Drivers/CMSIS/Core/Include/cmsis_gcc.h" 1
 235 0008 72B6     		cpsid i
 236              	@ 0 "" 2
 237              		.thumb
 238              		.syntax unified
 239              	.LBE39:
 240              	.LBE38:
  39:nnRtos/src/semaphores.c **** 		nnOsThreadYield();
 241              		.loc 1 39 3 view .LVU46
 242 000a FFF7FEFF 		bl	nnOsThreadYield
 243              	.LVL5:
  40:nnRtos/src/semaphores.c **** 		nnLEAVE_CRITCAL();
 244              		.loc 1 40 3 view .LVU47
 245              	.LBB40:
 246              	.LBI40:
 129:Drivers/CMSIS/Core/Include/cmsis_gcc.h **** {
 247              		.loc 2 129 27 view .LVU48
 248              	.LBB41:
 131:Drivers/CMSIS/Core/Include/cmsis_gcc.h **** }
 249              		.loc 2 131 3 view .LVU49
 250              		.syntax unified
 251              	@ 131 "Drivers/CMSIS/Core/Include/cmsis_gcc.h" 1
 252 000e 62B6     		cpsie i
 253              	@ 0 "" 2
 254              		.thumb
 255              		.syntax unified
 256              	.L7:
 131:Drivers/CMSIS/Core/Include/cmsis_gcc.h **** }
 257              		.loc 2 131 3 is_stmt 0 view .LVU50
 258              	.LBE41:
 259              	.LBE40:
  37:nnRtos/src/semaphores.c **** 		nnENTRY_CRITCAL();
ARM GAS  C:\Users\Teodor\AppData\Local\Temp\cceXtGvQ.s 			page 9


 260              		.loc 1 37 7 is_stmt 1 view .LVU51
  37:nnRtos/src/semaphores.c **** 		nnENTRY_CRITCAL();
 261              		.loc 1 37 8 is_stmt 0 view .LVU52
 262 0010 2368     		ldr	r3, [r4]
  37:nnRtos/src/semaphores.c **** 		nnENTRY_CRITCAL();
 263              		.loc 1 37 7 view .LVU53
 264 0012 002B     		cmp	r3, #0
 265 0014 F8DD     		ble	.L8
  41:nnRtos/src/semaphores.c **** 	}
  42:nnRtos/src/semaphores.c **** 	nnENTRY_CRITCAL();
 266              		.loc 1 42 2 is_stmt 1 view .LVU54
 267              	.LBB42:
 268              	.LBI42:
 140:Drivers/CMSIS/Core/Include/cmsis_gcc.h **** {
 269              		.loc 2 140 27 view .LVU55
 270              	.LBB43:
 142:Drivers/CMSIS/Core/Include/cmsis_gcc.h **** }
 271              		.loc 2 142 3 view .LVU56
 272              		.syntax unified
 273              	@ 142 "Drivers/CMSIS/Core/Include/cmsis_gcc.h" 1
 274 0016 72B6     		cpsid i
 275              	@ 0 "" 2
 276              		.thumb
 277              		.syntax unified
 278              	.LBE43:
 279              	.LBE42:
  43:nnRtos/src/semaphores.c **** 	*semaphore -=1;
 280              		.loc 1 43 2 view .LVU57
 281              		.loc 1 43 13 is_stmt 0 view .LVU58
 282 0018 2368     		ldr	r3, [r4]
 283 001a 013B     		subs	r3, r3, #1
 284 001c 2360     		str	r3, [r4]
  44:nnRtos/src/semaphores.c **** 	 nnLEAVE_CRITCAL();
 285              		.loc 1 44 3 is_stmt 1 view .LVU59
 286              	.LBB44:
 287              	.LBI44:
 129:Drivers/CMSIS/Core/Include/cmsis_gcc.h **** {
 288              		.loc 2 129 27 view .LVU60
 289              	.LBB45:
 131:Drivers/CMSIS/Core/Include/cmsis_gcc.h **** }
 290              		.loc 2 131 3 view .LVU61
 291              		.syntax unified
 292              	@ 131 "Drivers/CMSIS/Core/Include/cmsis_gcc.h" 1
 293 001e 62B6     		cpsie i
 294              	@ 0 "" 2
 295              		.thumb
 296              		.syntax unified
 297              	.LBE45:
 298              	.LBE44:
  45:nnRtos/src/semaphores.c **** }...
 299              		.loc 1 45 1 is_stmt 0 view .LVU62
 300 0020 10BD     		pop	{r4, pc}
 301              		.loc 1 45 1 view .LVU63
 302              		.cfi_endproc
 303              	.LFE68:
 305              		.text
 306              	.Letext0:
ARM GAS  C:\Users\Teodor\AppData\Local\Temp\cceXtGvQ.s 			page 10


 307              		.file 3 "d:\\gnu_tools\\gnu arm embedded toolchain\\10 2021.10\\arm-none-eabi\\include\\machine\\_
 308              		.file 4 "d:\\gnu_tools\\gnu arm embedded toolchain\\10 2021.10\\arm-none-eabi\\include\\sys\\_stdi
 309              		.file 5 "nnRtos/inc/nnRTOS.h"
ARM GAS  C:\Users\Teodor\AppData\Local\Temp\cceXtGvQ.s 			page 11

